

Microchip MPLAB XC8 Assembler V2.32 build 20210201212658 
                                                                                               Sat Oct 23 16:08:30 2021

Microchip MPLAB XC8 C Compiler v2.32 (Free license) build 20210201212658 Og1 
     1                           	processor	16F15376
     2                           	pagewidth 120
     3                           	opt	flic
     4                           	psect	idataCOMMON,global,class=CODE,delta=2,noexec
     5                           	psect	idataBANK0,global,class=CODE,delta=2,noexec
     6                           	psect	stringtext1,global,class=STRCODE,delta=2,noexec
     7                           	psect	nvBANK0,global,class=BANK0,space=1,delta=1,noexec
     8                           	psect	cinit,global,class=CODE,merge=1,delta=2
     9                           	psect	bssCOMMON,global,class=COMMON,space=1,delta=1,noexec
    10                           	psect	dataCOMMON,global,class=COMMON,space=1,delta=1,noexec
    11                           	psect	bssBANK0,global,class=BANK0,space=1,delta=1,noexec
    12                           	psect	dataBANK0,global,class=BANK0,space=1,delta=1,noexec
    13                           	psect	clrtext,global,class=CODE,delta=2
    14                           	psect	cstackCOMMON,global,class=COMMON,space=1,delta=1,noexec
    15                           	psect	maintext,global,class=CODE,merge=1,split=1,delta=2
    16                           	psect	text1,local,class=CODE,merge=1,delta=2
    17                           	psect	text2,local,class=CODE,merge=1,delta=2
    18                           	psect	text3,local,class=CODE,merge=1,delta=2
    19                           	psect	text4,local,class=CODE,merge=1,delta=2
    20                           	psect	text5,local,class=CODE,merge=1,delta=2
    21                           	psect	text6,local,class=CODE,merge=1,delta=2
    22                           	psect	text7,local,class=CODE,merge=1,delta=2
    23                           	psect	text8,local,class=CODE,merge=1,delta=2
    24                           	psect	text9,local,class=CODE,merge=1,delta=2
    25                           	psect	text10,local,class=CODE,merge=1,delta=2
    26                           	psect	text11,local,class=CODE,merge=1,delta=2
    27                           	psect	text12,local,class=CODE,merge=1,delta=2
    28                           	psect	text13,local,class=CODE,merge=1,delta=2
    29                           	psect	text14,local,class=CODE,merge=1,delta=2
    30                           	psect	text15,local,class=CODE,merge=1,delta=2
    31                           	psect	text16,local,class=CODE,merge=1,delta=2
    32                           	psect	config,global,abs,ovrld,class=CONFIG,space=4,delta=2,noexec
    33                           	dabs	1,0x7E,2
    34  0000                     
    35                           ; Version 2.35
    36                           ; Generated 01/06/2021 GMT
    37                           ; 
    38                           ; Copyright © 2021, Microchip Technology Inc. and its subsidiaries ("Microchip")
    39                           ; All rights reserved.
    40                           ; 
    41                           ; This software is developed by Microchip Technology Inc. and its subsidiaries ("Microch
      +                          ip").
    42                           ; 
    43                           ; Redistribution and use in source and binary forms, with or without modification, are
    44                           ; permitted provided that the following conditions are met:
    45                           ; 
    46                           ;     1. Redistributions of source code must retain the above copyright notice, this lis
      +                          t of
    47                           ;        conditions and the following disclaimer.
    48                           ; 
    49                           ;     2. Redistributions in binary form must reproduce the above copyright notice, this 
      +                          list
    50                           ;        of conditions and the following disclaimer in the documentation and/or other
    51                           ;        materials provided with the distribution. Publication is not required when
    52                           ;        this file is used in an embedded application.
    53                           ; 
    54                           ;     3. Microchip's name may not be used to endorse or promote products derived from th
      +                          is
    55                           ;        software without specific prior written permission.
    56                           ; 
    57                           ; THIS SOFTWARE IS PROVIDED BY MICROCHIP "AS IS" AND ANY EXPRESS OR IMPLIED WARRANTIES,
    58                           ; INCLUDING, BUT NOT LIMITED TO, THE IMPLIED WARRANTIES OF MERCHANTABILITY AND FITNESS F
      +                          OR
    59                           ; PURPOSE ARE DISCLAIMED.  IN NO EVENT SHALL MICROCHIP BE LIABLE FOR ANY DIRECT, INDIREC
      +                          T,
    60                           ; INCIDENTAL, SPECIAL, EXEMPLARY, OR CONSEQUENTIAL DAMAGES (INCLUDING BUT NOT LIMITED TO
    61                           ; PROCUREMENT OF SUBSTITUTE GOODS OR SERVICES; LOSS OF USE, DATA OR PROFITS; OR BUSINESS
    62                           ; INTERRUPTION) HOWSOEVER CAUSED AND ON ANY THEORY OF LIABILITY, WHETHER IN CONTRACT, ST
      +                          RICT
    63                           ; LIABILITY, OR TORT (INCLUDING NEGLIGENCE OR OTHERWISE) ARISING IN ANY WAY OUT OF THE U
      +                          SE OF
    64                           ; THIS SOFTWARE, EVEN IF ADVISED OF THE POSSIBILITY OF SUCH DAMAGE.
    65                           ; 
    66                           ; 
    67                           ; Code-generator required, PIC16F15376 Definitions
    68                           ; 
    69                           ; SFR Addresses
    70  0000                     	;# 
    71  0001                     	;# 
    72  0002                     	;# 
    73  0003                     	;# 
    74  0004                     	;# 
    75  0005                     	;# 
    76  0006                     	;# 
    77  0007                     	;# 
    78  0008                     	;# 
    79  0009                     	;# 
    80  000A                     	;# 
    81  000B                     	;# 
    82  000C                     	;# 
    83  000D                     	;# 
    84  000E                     	;# 
    85  000F                     	;# 
    86  0010                     	;# 
    87  0012                     	;# 
    88  0013                     	;# 
    89  0014                     	;# 
    90  0015                     	;# 
    91  0016                     	;# 
    92  0018                     	;# 
    93  0019                     	;# 
    94  001A                     	;# 
    95  001B                     	;# 
    96  001C                     	;# 
    97  009B                     	;# 
    98  009B                     	;# 
    99  009C                     	;# 
   100  009D                     	;# 
   101  009E                     	;# 
   102  009F                     	;# 
   103  0119                     	;# 
   104  0119                     	;# 
   105  0119                     	;# 
   106  011A                     	;# 
   107  011A                     	;# 
   108  011A                     	;# 
   109  011B                     	;# 
   110  011B                     	;# 
   111  011B                     	;# 
   112  011B                     	;# 
   113  011B                     	;# 
   114  011C                     	;# 
   115  011C                     	;# 
   116  011C                     	;# 
   117  011D                     	;# 
   118  011D                     	;# 
   119  011D                     	;# 
   120  011E                     	;# 
   121  011E                     	;# 
   122  011E                     	;# 
   123  011F                     	;# 
   124  011F                     	;# 
   125  011F                     	;# 
   126  011F                     	;# 
   127  011F                     	;# 
   128  018C                     	;# 
   129  018D                     	;# 
   130  018E                     	;# 
   131  018F                     	;# 
   132  0190                     	;# 
   133  0191                     	;# 
   134  0192                     	;# 
   135  0196                     	;# 
   136  0197                     	;# 
   137  0198                     	;# 
   138  0199                     	;# 
   139  019A                     	;# 
   140  019B                     	;# 
   141  019C                     	;# 
   142  020C                     	;# 
   143  020C                     	;# 
   144  020D                     	;# 
   145  020E                     	;# 
   146  020F                     	;# 
   147  020F                     	;# 
   148  0210                     	;# 
   149  0210                     	;# 
   150  0211                     	;# 
   151  0211                     	;# 
   152  028C                     	;# 
   153  028C                     	;# 
   154  028D                     	;# 
   155  028D                     	;# 
   156  028E                     	;# 
   157  028F                     	;# 
   158  0290                     	;# 
   159  0291                     	;# 
   160  030C                     	;# 
   161  030C                     	;# 
   162  030D                     	;# 
   163  030E                     	;# 
   164  030F                     	;# 
   165  0310                     	;# 
   166  0310                     	;# 
   167  0311                     	;# 
   168  0312                     	;# 
   169  0313                     	;# 
   170  0314                     	;# 
   171  0314                     	;# 
   172  0315                     	;# 
   173  0316                     	;# 
   174  0318                     	;# 
   175  0318                     	;# 
   176  0319                     	;# 
   177  031A                     	;# 
   178  031C                     	;# 
   179  031C                     	;# 
   180  031D                     	;# 
   181  031E                     	;# 
   182  038C                     	;# 
   183  038C                     	;# 
   184  038D                     	;# 
   185  038E                     	;# 
   186  058C                     	;# 
   187  058C                     	;# 
   188  058D                     	;# 
   189  058E                     	;# 
   190  058F                     	;# 
   191  058F                     	;# 
   192  0590                     	;# 
   193  0591                     	;# 
   194  0592                     	;# 
   195  0593                     	;# 
   196  059C                     	;# 
   197  059C                     	;# 
   198  059D                     	;# 
   199  059D                     	;# 
   200  059E                     	;# 
   201  059F                     	;# 
   202  060C                     	;# 
   203  060D                     	;# 
   204  060E                     	;# 
   205  060F                     	;# 
   206  0610                     	;# 
   207  0611                     	;# 
   208  0612                     	;# 
   209  0613                     	;# 
   210  0614                     	;# 
   211  070C                     	;# 
   212  070D                     	;# 
   213  070E                     	;# 
   214  070F                     	;# 
   215  0710                     	;# 
   216  0711                     	;# 
   217  0712                     	;# 
   218  0713                     	;# 
   219  0716                     	;# 
   220  0717                     	;# 
   221  0718                     	;# 
   222  0719                     	;# 
   223  071A                     	;# 
   224  071B                     	;# 
   225  071C                     	;# 
   226  071D                     	;# 
   227  0796                     	;# 
   228  0797                     	;# 
   229  0798                     	;# 
   230  0799                     	;# 
   231  079A                     	;# 
   232  079B                     	;# 
   233  080C                     	;# 
   234  080D                     	;# 
   235  080E                     	;# 
   236  080F                     	;# 
   237  0810                     	;# 
   238  0811                     	;# 
   239  0812                     	;# 
   240  0813                     	;# 
   241  0814                     	;# 
   242  081A                     	;# 
   243  081A                     	;# 
   244  081B                     	;# 
   245  081C                     	;# 
   246  081C                     	;# 
   247  081D                     	;# 
   248  081E                     	;# 
   249  081F                     	;# 
   250  088C                     	;# 
   251  088D                     	;# 
   252  088E                     	;# 
   253  088F                     	;# 
   254  0890                     	;# 
   255  0891                     	;# 
   256  0892                     	;# 
   257  0893                     	;# 
   258  0895                     	;# 
   259  0896                     	;# 
   260  090C                     	;# 
   261  090E                     	;# 
   262  090F                     	;# 
   263  091F                     	;# 
   264  098F                     	;# 
   265  098F                     	;# 
   266  0990                     	;# 
   267  0991                     	;# 
   268  0992                     	;# 
   269  0993                     	;# 
   270  0994                     	;# 
   271  0995                     	;# 
   272  0996                     	;# 
   273  0997                     	;# 
   274  0A19                     	;# 
   275  0A19                     	;# 
   276  0A1A                     	;# 
   277  0A1A                     	;# 
   278  0A1B                     	;# 
   279  0A1B                     	;# 
   280  0A1B                     	;# 
   281  0A1C                     	;# 
   282  0A1C                     	;# 
   283  0A1D                     	;# 
   284  0A1D                     	;# 
   285  0A1E                     	;# 
   286  0A1E                     	;# 
   287  0A1F                     	;# 
   288  0A1F                     	;# 
   289  0A1F                     	;# 
   290  1E0F                     	;# 
   291  1E10                     	;# 
   292  1E11                     	;# 
   293  1E12                     	;# 
   294  1E13                     	;# 
   295  1E14                     	;# 
   296  1E15                     	;# 
   297  1E16                     	;# 
   298  1E17                     	;# 
   299  1E18                     	;# 
   300  1E19                     	;# 
   301  1E1A                     	;# 
   302  1E1B                     	;# 
   303  1E1C                     	;# 
   304  1E1D                     	;# 
   305  1E1E                     	;# 
   306  1E1F                     	;# 
   307  1E20                     	;# 
   308  1E21                     	;# 
   309  1E22                     	;# 
   310  1E23                     	;# 
   311  1E24                     	;# 
   312  1E25                     	;# 
   313  1E26                     	;# 
   314  1E27                     	;# 
   315  1E28                     	;# 
   316  1E29                     	;# 
   317  1E2A                     	;# 
   318  1E2B                     	;# 
   319  1E2C                     	;# 
   320  1E2D                     	;# 
   321  1E2E                     	;# 
   322  1E2F                     	;# 
   323  1E30                     	;# 
   324  1E31                     	;# 
   325  1E32                     	;# 
   326  1E33                     	;# 
   327  1E34                     	;# 
   328  1E35                     	;# 
   329  1E36                     	;# 
   330  1E37                     	;# 
   331  1E8F                     	;# 
   332  1E90                     	;# 
   333  1E91                     	;# 
   334  1E92                     	;# 
   335  1E93                     	;# 
   336  1E9C                     	;# 
   337  1EA1                     	;# 
   338  1EA2                     	;# 
   339  1EB1                     	;# 
   340  1EBB                     	;# 
   341  1EBC                     	;# 
   342  1EBD                     	;# 
   343  1EBE                     	;# 
   344  1EC3                     	;# 
   345  1EC5                     	;# 
   346  1EC6                     	;# 
   347  1EC7                     	;# 
   348  1EC8                     	;# 
   349  1EC9                     	;# 
   350  1ECA                     	;# 
   351  1ECB                     	;# 
   352  1ECC                     	;# 
   353  1ECD                     	;# 
   354  1ECE                     	;# 
   355  1F10                     	;# 
   356  1F11                     	;# 
   357  1F12                     	;# 
   358  1F13                     	;# 
   359  1F14                     	;# 
   360  1F15                     	;# 
   361  1F16                     	;# 
   362  1F17                     	;# 
   363  1F18                     	;# 
   364  1F19                     	;# 
   365  1F1A                     	;# 
   366  1F1B                     	;# 
   367  1F1C                     	;# 
   368  1F1D                     	;# 
   369  1F1E                     	;# 
   370  1F1F                     	;# 
   371  1F20                     	;# 
   372  1F21                     	;# 
   373  1F22                     	;# 
   374  1F23                     	;# 
   375  1F24                     	;# 
   376  1F25                     	;# 
   377  1F26                     	;# 
   378  1F27                     	;# 
   379  1F28                     	;# 
   380  1F29                     	;# 
   381  1F2A                     	;# 
   382  1F2B                     	;# 
   383  1F2C                     	;# 
   384  1F2D                     	;# 
   385  1F2E                     	;# 
   386  1F2F                     	;# 
   387  1F30                     	;# 
   388  1F31                     	;# 
   389  1F32                     	;# 
   390  1F38                     	;# 
   391  1F39                     	;# 
   392  1F3A                     	;# 
   393  1F3B                     	;# 
   394  1F3C                     	;# 
   395  1F3D                     	;# 
   396  1F3E                     	;# 
   397  1F3F                     	;# 
   398  1F43                     	;# 
   399  1F44                     	;# 
   400  1F45                     	;# 
   401  1F46                     	;# 
   402  1F47                     	;# 
   403  1F48                     	;# 
   404  1F49                     	;# 
   405  1F4A                     	;# 
   406  1F4E                     	;# 
   407  1F4F                     	;# 
   408  1F50                     	;# 
   409  1F51                     	;# 
   410  1F52                     	;# 
   411  1F53                     	;# 
   412  1F54                     	;# 
   413  1F55                     	;# 
   414  1F59                     	;# 
   415  1F5A                     	;# 
   416  1F5B                     	;# 
   417  1F5C                     	;# 
   418  1F5D                     	;# 
   419  1F64                     	;# 
   420  1F65                     	;# 
   421  1F66                     	;# 
   422  1F67                     	;# 
   423  1F68                     	;# 
   424  1F69                     	;# 
   425  1F6A                     	;# 
   426  1F6B                     	;# 
   427  1FE4                     	;# 
   428  1FE5                     	;# 
   429  1FE6                     	;# 
   430  1FE7                     	;# 
   431  1FE8                     	;# 
   432  1FE8                     	;# 
   433  1FE9                     	;# 
   434  1FEA                     	;# 
   435  1FEB                     	;# 
   436  1FED                     	;# 
   437  1FEE                     	;# 
   438  1FEF                     	;# 
   439  0000                     	;# 
   440  0001                     	;# 
   441  0002                     	;# 
   442  0003                     	;# 
   443  0004                     	;# 
   444  0005                     	;# 
   445  0006                     	;# 
   446  0007                     	;# 
   447  0008                     	;# 
   448  0009                     	;# 
   449  000A                     	;# 
   450  000B                     	;# 
   451  000C                     	;# 
   452  000D                     	;# 
   453  000E                     	;# 
   454  000F                     	;# 
   455  0010                     	;# 
   456  0012                     	;# 
   457  0013                     	;# 
   458  0014                     	;# 
   459  0015                     	;# 
   460  0016                     	;# 
   461  0018                     	;# 
   462  0019                     	;# 
   463  001A                     	;# 
   464  001B                     	;# 
   465  001C                     	;# 
   466  009B                     	;# 
   467  009B                     	;# 
   468  009C                     	;# 
   469  009D                     	;# 
   470  009E                     	;# 
   471  009F                     	;# 
   472  0119                     	;# 
   473  0119                     	;# 
   474  0119                     	;# 
   475  011A                     	;# 
   476  011A                     	;# 
   477  011A                     	;# 
   478  011B                     	;# 
   479  011B                     	;# 
   480  011B                     	;# 
   481  011B                     	;# 
   482  011B                     	;# 
   483  011C                     	;# 
   484  011C                     	;# 
   485  011C                     	;# 
   486  011D                     	;# 
   487  011D                     	;# 
   488  011D                     	;# 
   489  011E                     	;# 
   490  011E                     	;# 
   491  011E                     	;# 
   492  011F                     	;# 
   493  011F                     	;# 
   494  011F                     	;# 
   495  011F                     	;# 
   496  011F                     	;# 
   497  018C                     	;# 
   498  018D                     	;# 
   499  018E                     	;# 
   500  018F                     	;# 
   501  0190                     	;# 
   502  0191                     	;# 
   503  0192                     	;# 
   504  0196                     	;# 
   505  0197                     	;# 
   506  0198                     	;# 
   507  0199                     	;# 
   508  019A                     	;# 
   509  019B                     	;# 
   510  019C                     	;# 
   511  020C                     	;# 
   512  020C                     	;# 
   513  020D                     	;# 
   514  020E                     	;# 
   515  020F                     	;# 
   516  020F                     	;# 
   517  0210                     	;# 
   518  0210                     	;# 
   519  0211                     	;# 
   520  0211                     	;# 
   521  028C                     	;# 
   522  028C                     	;# 
   523  028D                     	;# 
   524  028D                     	;# 
   525  028E                     	;# 
   526  028F                     	;# 
   527  0290                     	;# 
   528  0291                     	;# 
   529  030C                     	;# 
   530  030C                     	;# 
   531  030D                     	;# 
   532  030E                     	;# 
   533  030F                     	;# 
   534  0310                     	;# 
   535  0310                     	;# 
   536  0311                     	;# 
   537  0312                     	;# 
   538  0313                     	;# 
   539  0314                     	;# 
   540  0314                     	;# 
   541  0315                     	;# 
   542  0316                     	;# 
   543  0318                     	;# 
   544  0318                     	;# 
   545  0319                     	;# 
   546  031A                     	;# 
   547  031C                     	;# 
   548  031C                     	;# 
   549  031D                     	;# 
   550  031E                     	;# 
   551  038C                     	;# 
   552  038C                     	;# 
   553  038D                     	;# 
   554  038E                     	;# 
   555  058C                     	;# 
   556  058C                     	;# 
   557  058D                     	;# 
   558  058E                     	;# 
   559  058F                     	;# 
   560  058F                     	;# 
   561  0590                     	;# 
   562  0591                     	;# 
   563  0592                     	;# 
   564  0593                     	;# 
   565  059C                     	;# 
   566  059C                     	;# 
   567  059D                     	;# 
   568  059D                     	;# 
   569  059E                     	;# 
   570  059F                     	;# 
   571  060C                     	;# 
   572  060D                     	;# 
   573  060E                     	;# 
   574  060F                     	;# 
   575  0610                     	;# 
   576  0611                     	;# 
   577  0612                     	;# 
   578  0613                     	;# 
   579  0614                     	;# 
   580  070C                     	;# 
   581  070D                     	;# 
   582  070E                     	;# 
   583  070F                     	;# 
   584  0710                     	;# 
   585  0711                     	;# 
   586  0712                     	;# 
   587  0713                     	;# 
   588  0716                     	;# 
   589  0717                     	;# 
   590  0718                     	;# 
   591  0719                     	;# 
   592  071A                     	;# 
   593  071B                     	;# 
   594  071C                     	;# 
   595  071D                     	;# 
   596  0796                     	;# 
   597  0797                     	;# 
   598  0798                     	;# 
   599  0799                     	;# 
   600  079A                     	;# 
   601  079B                     	;# 
   602  080C                     	;# 
   603  080D                     	;# 
   604  080E                     	;# 
   605  080F                     	;# 
   606  0810                     	;# 
   607  0811                     	;# 
   608  0812                     	;# 
   609  0813                     	;# 
   610  0814                     	;# 
   611  081A                     	;# 
   612  081A                     	;# 
   613  081B                     	;# 
   614  081C                     	;# 
   615  081C                     	;# 
   616  081D                     	;# 
   617  081E                     	;# 
   618  081F                     	;# 
   619  088C                     	;# 
   620  088D                     	;# 
   621  088E                     	;# 
   622  088F                     	;# 
   623  0890                     	;# 
   624  0891                     	;# 
   625  0892                     	;# 
   626  0893                     	;# 
   627  0895                     	;# 
   628  0896                     	;# 
   629  090C                     	;# 
   630  090E                     	;# 
   631  090F                     	;# 
   632  091F                     	;# 
   633  098F                     	;# 
   634  098F                     	;# 
   635  0990                     	;# 
   636  0991                     	;# 
   637  0992                     	;# 
   638  0993                     	;# 
   639  0994                     	;# 
   640  0995                     	;# 
   641  0996                     	;# 
   642  0997                     	;# 
   643  0A19                     	;# 
   644  0A19                     	;# 
   645  0A1A                     	;# 
   646  0A1A                     	;# 
   647  0A1B                     	;# 
   648  0A1B                     	;# 
   649  0A1B                     	;# 
   650  0A1C                     	;# 
   651  0A1C                     	;# 
   652  0A1D                     	;# 
   653  0A1D                     	;# 
   654  0A1E                     	;# 
   655  0A1E                     	;# 
   656  0A1F                     	;# 
   657  0A1F                     	;# 
   658  0A1F                     	;# 
   659  1E0F                     	;# 
   660  1E10                     	;# 
   661  1E11                     	;# 
   662  1E12                     	;# 
   663  1E13                     	;# 
   664  1E14                     	;# 
   665  1E15                     	;# 
   666  1E16                     	;# 
   667  1E17                     	;# 
   668  1E18                     	;# 
   669  1E19                     	;# 
   670  1E1A                     	;# 
   671  1E1B                     	;# 
   672  1E1C                     	;# 
   673  1E1D                     	;# 
   674  1E1E                     	;# 
   675  1E1F                     	;# 
   676  1E20                     	;# 
   677  1E21                     	;# 
   678  1E22                     	;# 
   679  1E23                     	;# 
   680  1E24                     	;# 
   681  1E25                     	;# 
   682  1E26                     	;# 
   683  1E27                     	;# 
   684  1E28                     	;# 
   685  1E29                     	;# 
   686  1E2A                     	;# 
   687  1E2B                     	;# 
   688  1E2C                     	;# 
   689  1E2D                     	;# 
   690  1E2E                     	;# 
   691  1E2F                     	;# 
   692  1E30                     	;# 
   693  1E31                     	;# 
   694  1E32                     	;# 
   695  1E33                     	;# 
   696  1E34                     	;# 
   697  1E35                     	;# 
   698  1E36                     	;# 
   699  1E37                     	;# 
   700  1E8F                     	;# 
   701  1E90                     	;# 
   702  1E91                     	;# 
   703  1E92                     	;# 
   704  1E93                     	;# 
   705  1E9C                     	;# 
   706  1EA1                     	;# 
   707  1EA2                     	;# 
   708  1EB1                     	;# 
   709  1EBB                     	;# 
   710  1EBC                     	;# 
   711  1EBD                     	;# 
   712  1EBE                     	;# 
   713  1EC3                     	;# 
   714  1EC5                     	;# 
   715  1EC6                     	;# 
   716  1EC7                     	;# 
   717  1EC8                     	;# 
   718  1EC9                     	;# 
   719  1ECA                     	;# 
   720  1ECB                     	;# 
   721  1ECC                     	;# 
   722  1ECD                     	;# 
   723  1ECE                     	;# 
   724  1F10                     	;# 
   725  1F11                     	;# 
   726  1F12                     	;# 
   727  1F13                     	;# 
   728  1F14                     	;# 
   729  1F15                     	;# 
   730  1F16                     	;# 
   731  1F17                     	;# 
   732  1F18                     	;# 
   733  1F19                     	;# 
   734  1F1A                     	;# 
   735  1F1B                     	;# 
   736  1F1C                     	;# 
   737  1F1D                     	;# 
   738  1F1E                     	;# 
   739  1F1F                     	;# 
   740  1F20                     	;# 
   741  1F21                     	;# 
   742  1F22                     	;# 
   743  1F23                     	;# 
   744  1F24                     	;# 
   745  1F25                     	;# 
   746  1F26                     	;# 
   747  1F27                     	;# 
   748  1F28                     	;# 
   749  1F29                     	;# 
   750  1F2A                     	;# 
   751  1F2B                     	;# 
   752  1F2C                     	;# 
   753  1F2D                     	;# 
   754  1F2E                     	;# 
   755  1F2F                     	;# 
   756  1F30                     	;# 
   757  1F31                     	;# 
   758  1F32                     	;# 
   759  1F38                     	;# 
   760  1F39                     	;# 
   761  1F3A                     	;# 
   762  1F3B                     	;# 
   763  1F3C                     	;# 
   764  1F3D                     	;# 
   765  1F3E                     	;# 
   766  1F3F                     	;# 
   767  1F43                     	;# 
   768  1F44                     	;# 
   769  1F45                     	;# 
   770  1F46                     	;# 
   771  1F47                     	;# 
   772  1F48                     	;# 
   773  1F49                     	;# 
   774  1F4A                     	;# 
   775  1F4E                     	;# 
   776  1F4F                     	;# 
   777  1F50                     	;# 
   778  1F51                     	;# 
   779  1F52                     	;# 
   780  1F53                     	;# 
   781  1F54                     	;# 
   782  1F55                     	;# 
   783  1F59                     	;# 
   784  1F5A                     	;# 
   785  1F5B                     	;# 
   786  1F5C                     	;# 
   787  1F5D                     	;# 
   788  1F64                     	;# 
   789  1F65                     	;# 
   790  1F66                     	;# 
   791  1F67                     	;# 
   792  1F68                     	;# 
   793  1F69                     	;# 
   794  1F6A                     	;# 
   795  1F6B                     	;# 
   796  1FE4                     	;# 
   797  1FE5                     	;# 
   798  1FE6                     	;# 
   799  1FE7                     	;# 
   800  1FE8                     	;# 
   801  1FE8                     	;# 
   802  1FE9                     	;# 
   803  1FEA                     	;# 
   804  1FEB                     	;# 
   805  1FED                     	;# 
   806  1FEE                     	;# 
   807  1FEF                     	;# 
   808  0000                     	;# 
   809  0001                     	;# 
   810  0002                     	;# 
   811  0003                     	;# 
   812  0004                     	;# 
   813  0005                     	;# 
   814  0006                     	;# 
   815  0007                     	;# 
   816  0008                     	;# 
   817  0009                     	;# 
   818  000A                     	;# 
   819  000B                     	;# 
   820  000C                     	;# 
   821  000D                     	;# 
   822  000E                     	;# 
   823  000F                     	;# 
   824  0010                     	;# 
   825  0012                     	;# 
   826  0013                     	;# 
   827  0014                     	;# 
   828  0015                     	;# 
   829  0016                     	;# 
   830  0018                     	;# 
   831  0019                     	;# 
   832  001A                     	;# 
   833  001B                     	;# 
   834  001C                     	;# 
   835  009B                     	;# 
   836  009B                     	;# 
   837  009C                     	;# 
   838  009D                     	;# 
   839  009E                     	;# 
   840  009F                     	;# 
   841  0119                     	;# 
   842  0119                     	;# 
   843  0119                     	;# 
   844  011A                     	;# 
   845  011A                     	;# 
   846  011A                     	;# 
   847  011B                     	;# 
   848  011B                     	;# 
   849  011B                     	;# 
   850  011B                     	;# 
   851  011B                     	;# 
   852  011C                     	;# 
   853  011C                     	;# 
   854  011C                     	;# 
   855  011D                     	;# 
   856  011D                     	;# 
   857  011D                     	;# 
   858  011E                     	;# 
   859  011E                     	;# 
   860  011E                     	;# 
   861  011F                     	;# 
   862  011F                     	;# 
   863  011F                     	;# 
   864  011F                     	;# 
   865  011F                     	;# 
   866  018C                     	;# 
   867  018D                     	;# 
   868  018E                     	;# 
   869  018F                     	;# 
   870  0190                     	;# 
   871  0191                     	;# 
   872  0192                     	;# 
   873  0196                     	;# 
   874  0197                     	;# 
   875  0198                     	;# 
   876  0199                     	;# 
   877  019A                     	;# 
   878  019B                     	;# 
   879  019C                     	;# 
   880  020C                     	;# 
   881  020C                     	;# 
   882  020D                     	;# 
   883  020E                     	;# 
   884  020F                     	;# 
   885  020F                     	;# 
   886  0210                     	;# 
   887  0210                     	;# 
   888  0211                     	;# 
   889  0211                     	;# 
   890  028C                     	;# 
   891  028C                     	;# 
   892  028D                     	;# 
   893  028D                     	;# 
   894  028E                     	;# 
   895  028F                     	;# 
   896  0290                     	;# 
   897  0291                     	;# 
   898  030C                     	;# 
   899  030C                     	;# 
   900  030D                     	;# 
   901  030E                     	;# 
   902  030F                     	;# 
   903  0310                     	;# 
   904  0310                     	;# 
   905  0311                     	;# 
   906  0312                     	;# 
   907  0313                     	;# 
   908  0314                     	;# 
   909  0314                     	;# 
   910  0315                     	;# 
   911  0316                     	;# 
   912  0318                     	;# 
   913  0318                     	;# 
   914  0319                     	;# 
   915  031A                     	;# 
   916  031C                     	;# 
   917  031C                     	;# 
   918  031D                     	;# 
   919  031E                     	;# 
   920  038C                     	;# 
   921  038C                     	;# 
   922  038D                     	;# 
   923  038E                     	;# 
   924  058C                     	;# 
   925  058C                     	;# 
   926  058D                     	;# 
   927  058E                     	;# 
   928  058F                     	;# 
   929  058F                     	;# 
   930  0590                     	;# 
   931  0591                     	;# 
   932  0592                     	;# 
   933  0593                     	;# 
   934  059C                     	;# 
   935  059C                     	;# 
   936  059D                     	;# 
   937  059D                     	;# 
   938  059E                     	;# 
   939  059F                     	;# 
   940  060C                     	;# 
   941  060D                     	;# 
   942  060E                     	;# 
   943  060F                     	;# 
   944  0610                     	;# 
   945  0611                     	;# 
   946  0612                     	;# 
   947  0613                     	;# 
   948  0614                     	;# 
   949  070C                     	;# 
   950  070D                     	;# 
   951  070E                     	;# 
   952  070F                     	;# 
   953  0710                     	;# 
   954  0711                     	;# 
   955  0712                     	;# 
   956  0713                     	;# 
   957  0716                     	;# 
   958  0717                     	;# 
   959  0718                     	;# 
   960  0719                     	;# 
   961  071A                     	;# 
   962  071B                     	;# 
   963  071C                     	;# 
   964  071D                     	;# 
   965  0796                     	;# 
   966  0797                     	;# 
   967  0798                     	;# 
   968  0799                     	;# 
   969  079A                     	;# 
   970  079B                     	;# 
   971  080C                     	;# 
   972  080D                     	;# 
   973  080E                     	;# 
   974  080F                     	;# 
   975  0810                     	;# 
   976  0811                     	;# 
   977  0812                     	;# 
   978  0813                     	;# 
   979  0814                     	;# 
   980  081A                     	;# 
   981  081A                     	;# 
   982  081B                     	;# 
   983  081C                     	;# 
   984  081C                     	;# 
   985  081D                     	;# 
   986  081E                     	;# 
   987  081F                     	;# 
   988  088C                     	;# 
   989  088D                     	;# 
   990  088E                     	;# 
   991  088F                     	;# 
   992  0890                     	;# 
   993  0891                     	;# 
   994  0892                     	;# 
   995  0893                     	;# 
   996  0895                     	;# 
   997  0896                     	;# 
   998  090C                     	;# 
   999  090E                     	;# 
  1000  090F                     	;# 
  1001  091F                     	;# 
  1002  098F                     	;# 
  1003  098F                     	;# 
  1004  0990                     	;# 
  1005  0991                     	;# 
  1006  0992                     	;# 
  1007  0993                     	;# 
  1008  0994                     	;# 
  1009  0995                     	;# 
  1010  0996                     	;# 
  1011  0997                     	;# 
  1012  0A19                     	;# 
  1013  0A19                     	;# 
  1014  0A1A                     	;# 
  1015  0A1A                     	;# 
  1016  0A1B                     	;# 
  1017  0A1B                     	;# 
  1018  0A1B                     	;# 
  1019  0A1C                     	;# 
  1020  0A1C                     	;# 
  1021  0A1D                     	;# 
  1022  0A1D                     	;# 
  1023  0A1E                     	;# 
  1024  0A1E                     	;# 
  1025  0A1F                     	;# 
  1026  0A1F                     	;# 
  1027  0A1F                     	;# 
  1028  1E0F                     	;# 
  1029  1E10                     	;# 
  1030  1E11                     	;# 
  1031  1E12                     	;# 
  1032  1E13                     	;# 
  1033  1E14                     	;# 
  1034  1E15                     	;# 
  1035  1E16                     	;# 
  1036  1E17                     	;# 
  1037  1E18                     	;# 
  1038  1E19                     	;# 
  1039  1E1A                     	;# 
  1040  1E1B                     	;# 
  1041  1E1C                     	;# 
  1042  1E1D                     	;# 
  1043  1E1E                     	;# 
  1044  1E1F                     	;# 
  1045  1E20                     	;# 
  1046  1E21                     	;# 
  1047  1E22                     	;# 
  1048  1E23                     	;# 
  1049  1E24                     	;# 
  1050  1E25                     	;# 
  1051  1E26                     	;# 
  1052  1E27                     	;# 
  1053  1E28                     	;# 
  1054  1E29                     	;# 
  1055  1E2A                     	;# 
  1056  1E2B                     	;# 
  1057  1E2C                     	;# 
  1058  1E2D                     	;# 
  1059  1E2E                     	;# 
  1060  1E2F                     	;# 
  1061  1E30                     	;# 
  1062  1E31                     	;# 
  1063  1E32                     	;# 
  1064  1E33                     	;# 
  1065  1E34                     	;# 
  1066  1E35                     	;# 
  1067  1E36                     	;# 
  1068  1E37                     	;# 
  1069  1E8F                     	;# 
  1070  1E90                     	;# 
  1071  1E91                     	;# 
  1072  1E92                     	;# 
  1073  1E93                     	;# 
  1074  1E9C                     	;# 
  1075  1EA1                     	;# 
  1076  1EA2                     	;# 
  1077  1EB1                     	;# 
  1078  1EBB                     	;# 
  1079  1EBC                     	;# 
  1080  1EBD                     	;# 
  1081  1EBE                     	;# 
  1082  1EC3                     	;# 
  1083  1EC5                     	;# 
  1084  1EC6                     	;# 
  1085  1EC7                     	;# 
  1086  1EC8                     	;# 
  1087  1EC9                     	;# 
  1088  1ECA                     	;# 
  1089  1ECB                     	;# 
  1090  1ECC                     	;# 
  1091  1ECD                     	;# 
  1092  1ECE                     	;# 
  1093  1F10                     	;# 
  1094  1F11                     	;# 
  1095  1F12                     	;# 
  1096  1F13                     	;# 
  1097  1F14                     	;# 
  1098  1F15                     	;# 
  1099  1F16                     	;# 
  1100  1F17                     	;# 
  1101  1F18                     	;# 
  1102  1F19                     	;# 
  1103  1F1A                     	;# 
  1104  1F1B                     	;# 
  1105  1F1C                     	;# 
  1106  1F1D                     	;# 
  1107  1F1E                     	;# 
  1108  1F1F                     	;# 
  1109  1F20                     	;# 
  1110  1F21                     	;# 
  1111  1F22                     	;# 
  1112  1F23                     	;# 
  1113  1F24                     	;# 
  1114  1F25                     	;# 
  1115  1F26                     	;# 
  1116  1F27                     	;# 
  1117  1F28                     	;# 
  1118  1F29                     	;# 
  1119  1F2A                     	;# 
  1120  1F2B                     	;# 
  1121  1F2C                     	;# 
  1122  1F2D                     	;# 
  1123  1F2E                     	;# 
  1124  1F2F                     	;# 
  1125  1F30                     	;# 
  1126  1F31                     	;# 
  1127  1F32                     	;# 
  1128  1F38                     	;# 
  1129  1F39                     	;# 
  1130  1F3A                     	;# 
  1131  1F3B                     	;# 
  1132  1F3C                     	;# 
  1133  1F3D                     	;# 
  1134  1F3E                     	;# 
  1135  1F3F                     	;# 
  1136  1F43                     	;# 
  1137  1F44                     	;# 
  1138  1F45                     	;# 
  1139  1F46                     	;# 
  1140  1F47                     	;# 
  1141  1F48                     	;# 
  1142  1F49                     	;# 
  1143  1F4A                     	;# 
  1144  1F4E                     	;# 
  1145  1F4F                     	;# 
  1146  1F50                     	;# 
  1147  1F51                     	;# 
  1148  1F52                     	;# 
  1149  1F53                     	;# 
  1150  1F54                     	;# 
  1151  1F55                     	;# 
  1152  1F59                     	;# 
  1153  1F5A                     	;# 
  1154  1F5B                     	;# 
  1155  1F5C                     	;# 
  1156  1F5D                     	;# 
  1157  1F64                     	;# 
  1158  1F65                     	;# 
  1159  1F66                     	;# 
  1160  1F67                     	;# 
  1161  1F68                     	;# 
  1162  1F69                     	;# 
  1163  1F6A                     	;# 
  1164  1F6B                     	;# 
  1165  1FE4                     	;# 
  1166  1FE5                     	;# 
  1167  1FE6                     	;# 
  1168  1FE7                     	;# 
  1169  1FE8                     	;# 
  1170  1FE8                     	;# 
  1171  1FE9                     	;# 
  1172  1FEA                     	;# 
  1173  1FEB                     	;# 
  1174  1FED                     	;# 
  1175  1FEE                     	;# 
  1176  1FEF                     	;# 
  1177  0000                     	;# 
  1178  0001                     	;# 
  1179  0002                     	;# 
  1180  0003                     	;# 
  1181  0004                     	;# 
  1182  0005                     	;# 
  1183  0006                     	;# 
  1184  0007                     	;# 
  1185  0008                     	;# 
  1186  0009                     	;# 
  1187  000A                     	;# 
  1188  000B                     	;# 
  1189  000C                     	;# 
  1190  000D                     	;# 
  1191  000E                     	;# 
  1192  000F                     	;# 
  1193  0010                     	;# 
  1194  0012                     	;# 
  1195  0013                     	;# 
  1196  0014                     	;# 
  1197  0015                     	;# 
  1198  0016                     	;# 
  1199  0018                     	;# 
  1200  0019                     	;# 
  1201  001A                     	;# 
  1202  001B                     	;# 
  1203  001C                     	;# 
  1204  009B                     	;# 
  1205  009B                     	;# 
  1206  009C                     	;# 
  1207  009D                     	;# 
  1208  009E                     	;# 
  1209  009F                     	;# 
  1210  0119                     	;# 
  1211  0119                     	;# 
  1212  0119                     	;# 
  1213  011A                     	;# 
  1214  011A                     	;# 
  1215  011A                     	;# 
  1216  011B                     	;# 
  1217  011B                     	;# 
  1218  011B                     	;# 
  1219  011B                     	;# 
  1220  011B                     	;# 
  1221  011C                     	;# 
  1222  011C                     	;# 
  1223  011C                     	;# 
  1224  011D                     	;# 
  1225  011D                     	;# 
  1226  011D                     	;# 
  1227  011E                     	;# 
  1228  011E                     	;# 
  1229  011E                     	;# 
  1230  011F                     	;# 
  1231  011F                     	;# 
  1232  011F                     	;# 
  1233  011F                     	;# 
  1234  011F                     	;# 
  1235  018C                     	;# 
  1236  018D                     	;# 
  1237  018E                     	;# 
  1238  018F                     	;# 
  1239  0190                     	;# 
  1240  0191                     	;# 
  1241  0192                     	;# 
  1242  0196                     	;# 
  1243  0197                     	;# 
  1244  0198                     	;# 
  1245  0199                     	;# 
  1246  019A                     	;# 
  1247  019B                     	;# 
  1248  019C                     	;# 
  1249  020C                     	;# 
  1250  020C                     	;# 
  1251  020D                     	;# 
  1252  020E                     	;# 
  1253  020F                     	;# 
  1254  020F                     	;# 
  1255  0210                     	;# 
  1256  0210                     	;# 
  1257  0211                     	;# 
  1258  0211                     	;# 
  1259  028C                     	;# 
  1260  028C                     	;# 
  1261  028D                     	;# 
  1262  028D                     	;# 
  1263  028E                     	;# 
  1264  028F                     	;# 
  1265  0290                     	;# 
  1266  0291                     	;# 
  1267  030C                     	;# 
  1268  030C                     	;# 
  1269  030D                     	;# 
  1270  030E                     	;# 
  1271  030F                     	;# 
  1272  0310                     	;# 
  1273  0310                     	;# 
  1274  0311                     	;# 
  1275  0312                     	;# 
  1276  0313                     	;# 
  1277  0314                     	;# 
  1278  0314                     	;# 
  1279  0315                     	;# 
  1280  0316                     	;# 
  1281  0318                     	;# 
  1282  0318                     	;# 
  1283  0319                     	;# 
  1284  031A                     	;# 
  1285  031C                     	;# 
  1286  031C                     	;# 
  1287  031D                     	;# 
  1288  031E                     	;# 
  1289  038C                     	;# 
  1290  038C                     	;# 
  1291  038D                     	;# 
  1292  038E                     	;# 
  1293  058C                     	;# 
  1294  058C                     	;# 
  1295  058D                     	;# 
  1296  058E                     	;# 
  1297  058F                     	;# 
  1298  058F                     	;# 
  1299  0590                     	;# 
  1300  0591                     	;# 
  1301  0592                     	;# 
  1302  0593                     	;# 
  1303  059C                     	;# 
  1304  059C                     	;# 
  1305  059D                     	;# 
  1306  059D                     	;# 
  1307  059E                     	;# 
  1308  059F                     	;# 
  1309  060C                     	;# 
  1310  060D                     	;# 
  1311  060E                     	;# 
  1312  060F                     	;# 
  1313  0610                     	;# 
  1314  0611                     	;# 
  1315  0612                     	;# 
  1316  0613                     	;# 
  1317  0614                     	;# 
  1318  070C                     	;# 
  1319  070D                     	;# 
  1320  070E                     	;# 
  1321  070F                     	;# 
  1322  0710                     	;# 
  1323  0711                     	;# 
  1324  0712                     	;# 
  1325  0713                     	;# 
  1326  0716                     	;# 
  1327  0717                     	;# 
  1328  0718                     	;# 
  1329  0719                     	;# 
  1330  071A                     	;# 
  1331  071B                     	;# 
  1332  071C                     	;# 
  1333  071D                     	;# 
  1334  0796                     	;# 
  1335  0797                     	;# 
  1336  0798                     	;# 
  1337  0799                     	;# 
  1338  079A                     	;# 
  1339  079B                     	;# 
  1340  080C                     	;# 
  1341  080D                     	;# 
  1342  080E                     	;# 
  1343  080F                     	;# 
  1344  0810                     	;# 
  1345  0811                     	;# 
  1346  0812                     	;# 
  1347  0813                     	;# 
  1348  0814                     	;# 
  1349  081A                     	;# 
  1350  081A                     	;# 
  1351  081B                     	;# 
  1352  081C                     	;# 
  1353  081C                     	;# 
  1354  081D                     	;# 
  1355  081E                     	;# 
  1356  081F                     	;# 
  1357  088C                     	;# 
  1358  088D                     	;# 
  1359  088E                     	;# 
  1360  088F                     	;# 
  1361  0890                     	;# 
  1362  0891                     	;# 
  1363  0892                     	;# 
  1364  0893                     	;# 
  1365  0895                     	;# 
  1366  0896                     	;# 
  1367  090C                     	;# 
  1368  090E                     	;# 
  1369  090F                     	;# 
  1370  091F                     	;# 
  1371  098F                     	;# 
  1372  098F                     	;# 
  1373  0990                     	;# 
  1374  0991                     	;# 
  1375  0992                     	;# 
  1376  0993                     	;# 
  1377  0994                     	;# 
  1378  0995                     	;# 
  1379  0996                     	;# 
  1380  0997                     	;# 
  1381  0A19                     	;# 
  1382  0A19                     	;# 
  1383  0A1A                     	;# 
  1384  0A1A                     	;# 
  1385  0A1B                     	;# 
  1386  0A1B                     	;# 
  1387  0A1B                     	;# 
  1388  0A1C                     	;# 
  1389  0A1C                     	;# 
  1390  0A1D                     	;# 
  1391  0A1D                     	;# 
  1392  0A1E                     	;# 
  1393  0A1E                     	;# 
  1394  0A1F                     	;# 
  1395  0A1F                     	;# 
  1396  0A1F                     	;# 
  1397  1E0F                     	;# 
  1398  1E10                     	;# 
  1399  1E11                     	;# 
  1400  1E12                     	;# 
  1401  1E13                     	;# 
  1402  1E14                     	;# 
  1403  1E15                     	;# 
  1404  1E16                     	;# 
  1405  1E17                     	;# 
  1406  1E18                     	;# 
  1407  1E19                     	;# 
  1408  1E1A                     	;# 
  1409  1E1B                     	;# 
  1410  1E1C                     	;# 
  1411  1E1D                     	;# 
  1412  1E1E                     	;# 
  1413  1E1F                     	;# 
  1414  1E20                     	;# 
  1415  1E21                     	;# 
  1416  1E22                     	;# 
  1417  1E23                     	;# 
  1418  1E24                     	;# 
  1419  1E25                     	;# 
  1420  1E26                     	;# 
  1421  1E27                     	;# 
  1422  1E28                     	;# 
  1423  1E29                     	;# 
  1424  1E2A                     	;# 
  1425  1E2B                     	;# 
  1426  1E2C                     	;# 
  1427  1E2D                     	;# 
  1428  1E2E                     	;# 
  1429  1E2F                     	;# 
  1430  1E30                     	;# 
  1431  1E31                     	;# 
  1432  1E32                     	;# 
  1433  1E33                     	;# 
  1434  1E34                     	;# 
  1435  1E35                     	;# 
  1436  1E36                     	;# 
  1437  1E37                     	;# 
  1438  1E8F                     	;# 
  1439  1E90                     	;# 
  1440  1E91                     	;# 
  1441  1E92                     	;# 
  1442  1E93                     	;# 
  1443  1E9C                     	;# 
  1444  1EA1                     	;# 
  1445  1EA2                     	;# 
  1446  1EB1                     	;# 
  1447  1EBB                     	;# 
  1448  1EBC                     	;# 
  1449  1EBD                     	;# 
  1450  1EBE                     	;# 
  1451  1EC3                     	;# 
  1452  1EC5                     	;# 
  1453  1EC6                     	;# 
  1454  1EC7                     	;# 
  1455  1EC8                     	;# 
  1456  1EC9                     	;# 
  1457  1ECA                     	;# 
  1458  1ECB                     	;# 
  1459  1ECC                     	;# 
  1460  1ECD                     	;# 
  1461  1ECE                     	;# 
  1462  1F10                     	;# 
  1463  1F11                     	;# 
  1464  1F12                     	;# 
  1465  1F13                     	;# 
  1466  1F14                     	;# 
  1467  1F15                     	;# 
  1468  1F16                     	;# 
  1469  1F17                     	;# 
  1470  1F18                     	;# 
  1471  1F19                     	;# 
  1472  1F1A                     	;# 
  1473  1F1B                     	;# 
  1474  1F1C                     	;# 
  1475  1F1D                     	;# 
  1476  1F1E                     	;# 
  1477  1F1F                     	;# 
  1478  1F20                     	;# 
  1479  1F21                     	;# 
  1480  1F22                     	;# 
  1481  1F23                     	;# 
  1482  1F24                     	;# 
  1483  1F25                     	;# 
  1484  1F26                     	;# 
  1485  1F27                     	;# 
  1486  1F28                     	;# 
  1487  1F29                     	;# 
  1488  1F2A                     	;# 
  1489  1F2B                     	;# 
  1490  1F2C                     	;# 
  1491  1F2D                     	;# 
  1492  1F2E                     	;# 
  1493  1F2F                     	;# 
  1494  1F30                     	;# 
  1495  1F31                     	;# 
  1496  1F32                     	;# 
  1497  1F38                     	;# 
  1498  1F39                     	;# 
  1499  1F3A                     	;# 
  1500  1F3B                     	;# 
  1501  1F3C                     	;# 
  1502  1F3D                     	;# 
  1503  1F3E                     	;# 
  1504  1F3F                     	;# 
  1505  1F43                     	;# 
  1506  1F44                     	;# 
  1507  1F45                     	;# 
  1508  1F46                     	;# 
  1509  1F47                     	;# 
  1510  1F48                     	;# 
  1511  1F49                     	;# 
  1512  1F4A                     	;# 
  1513  1F4E                     	;# 
  1514  1F4F                     	;# 
  1515  1F50                     	;# 
  1516  1F51                     	;# 
  1517  1F52                     	;# 
  1518  1F53                     	;# 
  1519  1F54                     	;# 
  1520  1F55                     	;# 
  1521  1F59                     	;# 
  1522  1F5A                     	;# 
  1523  1F5B                     	;# 
  1524  1F5C                     	;# 
  1525  1F5D                     	;# 
  1526  1F64                     	;# 
  1527  1F65                     	;# 
  1528  1F66                     	;# 
  1529  1F67                     	;# 
  1530  1F68                     	;# 
  1531  1F69                     	;# 
  1532  1F6A                     	;# 
  1533  1F6B                     	;# 
  1534  1FE4                     	;# 
  1535  1FE5                     	;# 
  1536  1FE6                     	;# 
  1537  1FE7                     	;# 
  1538  1FE8                     	;# 
  1539  1FE8                     	;# 
  1540  1FE9                     	;# 
  1541  1FEA                     	;# 
  1542  1FEB                     	;# 
  1543  1FED                     	;# 
  1544  1FEE                     	;# 
  1545  1FEF                     	;# 
  1546  0000                     	;# 
  1547  0001                     	;# 
  1548  0002                     	;# 
  1549  0003                     	;# 
  1550  0004                     	;# 
  1551  0005                     	;# 
  1552  0006                     	;# 
  1553  0007                     	;# 
  1554  0008                     	;# 
  1555  0009                     	;# 
  1556  000A                     	;# 
  1557  000B                     	;# 
  1558  000C                     	;# 
  1559  000D                     	;# 
  1560  000E                     	;# 
  1561  000F                     	;# 
  1562  0010                     	;# 
  1563  0012                     	;# 
  1564  0013                     	;# 
  1565  0014                     	;# 
  1566  0015                     	;# 
  1567  0016                     	;# 
  1568  0018                     	;# 
  1569  0019                     	;# 
  1570  001A                     	;# 
  1571  001B                     	;# 
  1572  001C                     	;# 
  1573  009B                     	;# 
  1574  009B                     	;# 
  1575  009C                     	;# 
  1576  009D                     	;# 
  1577  009E                     	;# 
  1578  009F                     	;# 
  1579  0119                     	;# 
  1580  0119                     	;# 
  1581  0119                     	;# 
  1582  011A                     	;# 
  1583  011A                     	;# 
  1584  011A                     	;# 
  1585  011B                     	;# 
  1586  011B                     	;# 
  1587  011B                     	;# 
  1588  011B                     	;# 
  1589  011B                     	;# 
  1590  011C                     	;# 
  1591  011C                     	;# 
  1592  011C                     	;# 
  1593  011D                     	;# 
  1594  011D                     	;# 
  1595  011D                     	;# 
  1596  011E                     	;# 
  1597  011E                     	;# 
  1598  011E                     	;# 
  1599  011F                     	;# 
  1600  011F                     	;# 
  1601  011F                     	;# 
  1602  011F                     	;# 
  1603  011F                     	;# 
  1604  018C                     	;# 
  1605  018D                     	;# 
  1606  018E                     	;# 
  1607  018F                     	;# 
  1608  0190                     	;# 
  1609  0191                     	;# 
  1610  0192                     	;# 
  1611  0196                     	;# 
  1612  0197                     	;# 
  1613  0198                     	;# 
  1614  0199                     	;# 
  1615  019A                     	;# 
  1616  019B                     	;# 
  1617  019C                     	;# 
  1618  020C                     	;# 
  1619  020C                     	;# 
  1620  020D                     	;# 
  1621  020E                     	;# 
  1622  020F                     	;# 
  1623  020F                     	;# 
  1624  0210                     	;# 
  1625  0210                     	;# 
  1626  0211                     	;# 
  1627  0211                     	;# 
  1628  028C                     	;# 
  1629  028C                     	;# 
  1630  028D                     	;# 
  1631  028D                     	;# 
  1632  028E                     	;# 
  1633  028F                     	;# 
  1634  0290                     	;# 
  1635  0291                     	;# 
  1636  030C                     	;# 
  1637  030C                     	;# 
  1638  030D                     	;# 
  1639  030E                     	;# 
  1640  030F                     	;# 
  1641  0310                     	;# 
  1642  0310                     	;# 
  1643  0311                     	;# 
  1644  0312                     	;# 
  1645  0313                     	;# 
  1646  0314                     	;# 
  1647  0314                     	;# 
  1648  0315                     	;# 
  1649  0316                     	;# 
  1650  0318                     	;# 
  1651  0318                     	;# 
  1652  0319                     	;# 
  1653  031A                     	;# 
  1654  031C                     	;# 
  1655  031C                     	;# 
  1656  031D                     	;# 
  1657  031E                     	;# 
  1658  038C                     	;# 
  1659  038C                     	;# 
  1660  038D                     	;# 
  1661  038E                     	;# 
  1662  058C                     	;# 
  1663  058C                     	;# 
  1664  058D                     	;# 
  1665  058E                     	;# 
  1666  058F                     	;# 
  1667  058F                     	;# 
  1668  0590                     	;# 
  1669  0591                     	;# 
  1670  0592                     	;# 
  1671  0593                     	;# 
  1672  059C                     	;# 
  1673  059C                     	;# 
  1674  059D                     	;# 
  1675  059D                     	;# 
  1676  059E                     	;# 
  1677  059F                     	;# 
  1678  060C                     	;# 
  1679  060D                     	;# 
  1680  060E                     	;# 
  1681  060F                     	;# 
  1682  0610                     	;# 
  1683  0611                     	;# 
  1684  0612                     	;# 
  1685  0613                     	;# 
  1686  0614                     	;# 
  1687  070C                     	;# 
  1688  070D                     	;# 
  1689  070E                     	;# 
  1690  070F                     	;# 
  1691  0710                     	;# 
  1692  0711                     	;# 
  1693  0712                     	;# 
  1694  0713                     	;# 
  1695  0716                     	;# 
  1696  0717                     	;# 
  1697  0718                     	;# 
  1698  0719                     	;# 
  1699  071A                     	;# 
  1700  071B                     	;# 
  1701  071C                     	;# 
  1702  071D                     	;# 
  1703  0796                     	;# 
  1704  0797                     	;# 
  1705  0798                     	;# 
  1706  0799                     	;# 
  1707  079A                     	;# 
  1708  079B                     	;# 
  1709  080C                     	;# 
  1710  080D                     	;# 
  1711  080E                     	;# 
  1712  080F                     	;# 
  1713  0810                     	;# 
  1714  0811                     	;# 
  1715  0812                     	;# 
  1716  0813                     	;# 
  1717  0814                     	;# 
  1718  081A                     	;# 
  1719  081A                     	;# 
  1720  081B                     	;# 
  1721  081C                     	;# 
  1722  081C                     	;# 
  1723  081D                     	;# 
  1724  081E                     	;# 
  1725  081F                     	;# 
  1726  088C                     	;# 
  1727  088D                     	;# 
  1728  088E                     	;# 
  1729  088F                     	;# 
  1730  0890                     	;# 
  1731  0891                     	;# 
  1732  0892                     	;# 
  1733  0893                     	;# 
  1734  0895                     	;# 
  1735  0896                     	;# 
  1736  090C                     	;# 
  1737  090E                     	;# 
  1738  090F                     	;# 
  1739  091F                     	;# 
  1740  098F                     	;# 
  1741  098F                     	;# 
  1742  0990                     	;# 
  1743  0991                     	;# 
  1744  0992                     	;# 
  1745  0993                     	;# 
  1746  0994                     	;# 
  1747  0995                     	;# 
  1748  0996                     	;# 
  1749  0997                     	;# 
  1750  0A19                     	;# 
  1751  0A19                     	;# 
  1752  0A1A                     	;# 
  1753  0A1A                     	;# 
  1754  0A1B                     	;# 
  1755  0A1B                     	;# 
  1756  0A1B                     	;# 
  1757  0A1C                     	;# 
  1758  0A1C                     	;# 
  1759  0A1D                     	;# 
  1760  0A1D                     	;# 
  1761  0A1E                     	;# 
  1762  0A1E                     	;# 
  1763  0A1F                     	;# 
  1764  0A1F                     	;# 
  1765  0A1F                     	;# 
  1766  1E0F                     	;# 
  1767  1E10                     	;# 
  1768  1E11                     	;# 
  1769  1E12                     	;# 
  1770  1E13                     	;# 
  1771  1E14                     	;# 
  1772  1E15                     	;# 
  1773  1E16                     	;# 
  1774  1E17                     	;# 
  1775  1E18                     	;# 
  1776  1E19                     	;# 
  1777  1E1A                     	;# 
  1778  1E1B                     	;# 
  1779  1E1C                     	;# 
  1780  1E1D                     	;# 
  1781  1E1E                     	;# 
  1782  1E1F                     	;# 
  1783  1E20                     	;# 
  1784  1E21                     	;# 
  1785  1E22                     	;# 
  1786  1E23                     	;# 
  1787  1E24                     	;# 
  1788  1E25                     	;# 
  1789  1E26                     	;# 
  1790  1E27                     	;# 
  1791  1E28                     	;# 
  1792  1E29                     	;# 
  1793  1E2A                     	;# 
  1794  1E2B                     	;# 
  1795  1E2C                     	;# 
  1796  1E2D                     	;# 
  1797  1E2E                     	;# 
  1798  1E2F                     	;# 
  1799  1E30                     	;# 
  1800  1E31                     	;# 
  1801  1E32                     	;# 
  1802  1E33                     	;# 
  1803  1E34                     	;# 
  1804  1E35                     	;# 
  1805  1E36                     	;# 
  1806  1E37                     	;# 
  1807  1E8F                     	;# 
  1808  1E90                     	;# 
  1809  1E91                     	;# 
  1810  1E92                     	;# 
  1811  1E93                     	;# 
  1812  1E9C                     	;# 
  1813  1EA1                     	;# 
  1814  1EA2                     	;# 
  1815  1EB1                     	;# 
  1816  1EBB                     	;# 
  1817  1EBC                     	;# 
  1818  1EBD                     	;# 
  1819  1EBE                     	;# 
  1820  1EC3                     	;# 
  1821  1EC5                     	;# 
  1822  1EC6                     	;# 
  1823  1EC7                     	;# 
  1824  1EC8                     	;# 
  1825  1EC9                     	;# 
  1826  1ECA                     	;# 
  1827  1ECB                     	;# 
  1828  1ECC                     	;# 
  1829  1ECD                     	;# 
  1830  1ECE                     	;# 
  1831  1F10                     	;# 
  1832  1F11                     	;# 
  1833  1F12                     	;# 
  1834  1F13                     	;# 
  1835  1F14                     	;# 
  1836  1F15                     	;# 
  1837  1F16                     	;# 
  1838  1F17                     	;# 
  1839  1F18                     	;# 
  1840  1F19                     	;# 
  1841  1F1A                     	;# 
  1842  1F1B                     	;# 
  1843  1F1C                     	;# 
  1844  1F1D                     	;# 
  1845  1F1E                     	;# 
  1846  1F1F                     	;# 
  1847  1F20                     	;# 
  1848  1F21                     	;# 
  1849  1F22                     	;# 
  1850  1F23                     	;# 
  1851  1F24                     	;# 
  1852  1F25                     	;# 
  1853  1F26                     	;# 
  1854  1F27                     	;# 
  1855  1F28                     	;# 
  1856  1F29                     	;# 
  1857  1F2A                     	;# 
  1858  1F2B                     	;# 
  1859  1F2C                     	;# 
  1860  1F2D                     	;# 
  1861  1F2E                     	;# 
  1862  1F2F                     	;# 
  1863  1F30                     	;# 
  1864  1F31                     	;# 
  1865  1F32                     	;# 
  1866  1F38                     	;# 
  1867  1F39                     	;# 
  1868  1F3A                     	;# 
  1869  1F3B                     	;# 
  1870  1F3C                     	;# 
  1871  1F3D                     	;# 
  1872  1F3E                     	;# 
  1873  1F3F                     	;# 
  1874  1F43                     	;# 
  1875  1F44                     	;# 
  1876  1F45                     	;# 
  1877  1F46                     	;# 
  1878  1F47                     	;# 
  1879  1F48                     	;# 
  1880  1F49                     	;# 
  1881  1F4A                     	;# 
  1882  1F4E                     	;# 
  1883  1F4F                     	;# 
  1884  1F50                     	;# 
  1885  1F51                     	;# 
  1886  1F52                     	;# 
  1887  1F53                     	;# 
  1888  1F54                     	;# 
  1889  1F55                     	;# 
  1890  1F59                     	;# 
  1891  1F5A                     	;# 
  1892  1F5B                     	;# 
  1893  1F5C                     	;# 
  1894  1F5D                     	;# 
  1895  1F64                     	;# 
  1896  1F65                     	;# 
  1897  1F66                     	;# 
  1898  1F67                     	;# 
  1899  1F68                     	;# 
  1900  1F69                     	;# 
  1901  1F6A                     	;# 
  1902  1F6B                     	;# 
  1903  1FE4                     	;# 
  1904  1FE5                     	;# 
  1905  1FE6                     	;# 
  1906  1FE7                     	;# 
  1907  1FE8                     	;# 
  1908  1FE8                     	;# 
  1909  1FE9                     	;# 
  1910  1FEA                     	;# 
  1911  1FEB                     	;# 
  1912  1FED                     	;# 
  1913  1FEE                     	;# 
  1914  1FEF                     	;# 
  1915  0000                     	;# 
  1916  0001                     	;# 
  1917  0002                     	;# 
  1918  0003                     	;# 
  1919  0004                     	;# 
  1920  0005                     	;# 
  1921  0006                     	;# 
  1922  0007                     	;# 
  1923  0008                     	;# 
  1924  0009                     	;# 
  1925  000A                     	;# 
  1926  000B                     	;# 
  1927  000C                     	;# 
  1928  000D                     	;# 
  1929  000E                     	;# 
  1930  000F                     	;# 
  1931  0010                     	;# 
  1932  0012                     	;# 
  1933  0013                     	;# 
  1934  0014                     	;# 
  1935  0015                     	;# 
  1936  0016                     	;# 
  1937  0018                     	;# 
  1938  0019                     	;# 
  1939  001A                     	;# 
  1940  001B                     	;# 
  1941  001C                     	;# 
  1942  009B                     	;# 
  1943  009B                     	;# 
  1944  009C                     	;# 
  1945  009D                     	;# 
  1946  009E                     	;# 
  1947  009F                     	;# 
  1948  0119                     	;# 
  1949  0119                     	;# 
  1950  0119                     	;# 
  1951  011A                     	;# 
  1952  011A                     	;# 
  1953  011A                     	;# 
  1954  011B                     	;# 
  1955  011B                     	;# 
  1956  011B                     	;# 
  1957  011B                     	;# 
  1958  011B                     	;# 
  1959  011C                     	;# 
  1960  011C                     	;# 
  1961  011C                     	;# 
  1962  011D                     	;# 
  1963  011D                     	;# 
  1964  011D                     	;# 
  1965  011E                     	;# 
  1966  011E                     	;# 
  1967  011E                     	;# 
  1968  011F                     	;# 
  1969  011F                     	;# 
  1970  011F                     	;# 
  1971  011F                     	;# 
  1972  011F                     	;# 
  1973  018C                     	;# 
  1974  018D                     	;# 
  1975  018E                     	;# 
  1976  018F                     	;# 
  1977  0190                     	;# 
  1978  0191                     	;# 
  1979  0192                     	;# 
  1980  0196                     	;# 
  1981  0197                     	;# 
  1982  0198                     	;# 
  1983  0199                     	;# 
  1984  019A                     	;# 
  1985  019B                     	;# 
  1986  019C                     	;# 
  1987  020C                     	;# 
  1988  020C                     	;# 
  1989  020D                     	;# 
  1990  020E                     	;# 
  1991  020F                     	;# 
  1992  020F                     	;# 
  1993  0210                     	;# 
  1994  0210                     	;# 
  1995  0211                     	;# 
  1996  0211                     	;# 
  1997  028C                     	;# 
  1998  028C                     	;# 
  1999  028D                     	;# 
  2000  028D                     	;# 
  2001  028E                     	;# 
  2002  028F                     	;# 
  2003  0290                     	;# 
  2004  0291                     	;# 
  2005  030C                     	;# 
  2006  030C                     	;# 
  2007  030D                     	;# 
  2008  030E                     	;# 
  2009  030F                     	;# 
  2010  0310                     	;# 
  2011  0310                     	;# 
  2012  0311                     	;# 
  2013  0312                     	;# 
  2014  0313                     	;# 
  2015  0314                     	;# 
  2016  0314                     	;# 
  2017  0315                     	;# 
  2018  0316                     	;# 
  2019  0318                     	;# 
  2020  0318                     	;# 
  2021  0319                     	;# 
  2022  031A                     	;# 
  2023  031C                     	;# 
  2024  031C                     	;# 
  2025  031D                     	;# 
  2026  031E                     	;# 
  2027  038C                     	;# 
  2028  038C                     	;# 
  2029  038D                     	;# 
  2030  038E                     	;# 
  2031  058C                     	;# 
  2032  058C                     	;# 
  2033  058D                     	;# 
  2034  058E                     	;# 
  2035  058F                     	;# 
  2036  058F                     	;# 
  2037  0590                     	;# 
  2038  0591                     	;# 
  2039  0592                     	;# 
  2040  0593                     	;# 
  2041  059C                     	;# 
  2042  059C                     	;# 
  2043  059D                     	;# 
  2044  059D                     	;# 
  2045  059E                     	;# 
  2046  059F                     	;# 
  2047  060C                     	;# 
  2048  060D                     	;# 
  2049  060E                     	;# 
  2050  060F                     	;# 
  2051  0610                     	;# 
  2052  0611                     	;# 
  2053  0612                     	;# 
  2054  0613                     	;# 
  2055  0614                     	;# 
  2056  070C                     	;# 
  2057  070D                     	;# 
  2058  070E                     	;# 
  2059  070F                     	;# 
  2060  0710                     	;# 
  2061  0711                     	;# 
  2062  0712                     	;# 
  2063  0713                     	;# 
  2064  0716                     	;# 
  2065  0717                     	;# 
  2066  0718                     	;# 
  2067  0719                     	;# 
  2068  071A                     	;# 
  2069  071B                     	;# 
  2070  071C                     	;# 
  2071  071D                     	;# 
  2072  0796                     	;# 
  2073  0797                     	;# 
  2074  0798                     	;# 
  2075  0799                     	;# 
  2076  079A                     	;# 
  2077  079B                     	;# 
  2078  080C                     	;# 
  2079  080D                     	;# 
  2080  080E                     	;# 
  2081  080F                     	;# 
  2082  0810                     	;# 
  2083  0811                     	;# 
  2084  0812                     	;# 
  2085  0813                     	;# 
  2086  0814                     	;# 
  2087  081A                     	;# 
  2088  081A                     	;# 
  2089  081B                     	;# 
  2090  081C                     	;# 
  2091  081C                     	;# 
  2092  081D                     	;# 
  2093  081E                     	;# 
  2094  081F                     	;# 
  2095  088C                     	;# 
  2096  088D                     	;# 
  2097  088E                     	;# 
  2098  088F                     	;# 
  2099  0890                     	;# 
  2100  0891                     	;# 
  2101  0892                     	;# 
  2102  0893                     	;# 
  2103  0895                     	;# 
  2104  0896                     	;# 
  2105  090C                     	;# 
  2106  090E                     	;# 
  2107  090F                     	;# 
  2108  091F                     	;# 
  2109  098F                     	;# 
  2110  098F                     	;# 
  2111  0990                     	;# 
  2112  0991                     	;# 
  2113  0992                     	;# 
  2114  0993                     	;# 
  2115  0994                     	;# 
  2116  0995                     	;# 
  2117  0996                     	;# 
  2118  0997                     	;# 
  2119  0A19                     	;# 
  2120  0A19                     	;# 
  2121  0A1A                     	;# 
  2122  0A1A                     	;# 
  2123  0A1B                     	;# 
  2124  0A1B                     	;# 
  2125  0A1B                     	;# 
  2126  0A1C                     	;# 
  2127  0A1C                     	;# 
  2128  0A1D                     	;# 
  2129  0A1D                     	;# 
  2130  0A1E                     	;# 
  2131  0A1E                     	;# 
  2132  0A1F                     	;# 
  2133  0A1F                     	;# 
  2134  0A1F                     	;# 
  2135  1E0F                     	;# 
  2136  1E10                     	;# 
  2137  1E11                     	;# 
  2138  1E12                     	;# 
  2139  1E13                     	;# 
  2140  1E14                     	;# 
  2141  1E15                     	;# 
  2142  1E16                     	;# 
  2143  1E17                     	;# 
  2144  1E18                     	;# 
  2145  1E19                     	;# 
  2146  1E1A                     	;# 
  2147  1E1B                     	;# 
  2148  1E1C                     	;# 
  2149  1E1D                     	;# 
  2150  1E1E                     	;# 
  2151  1E1F                     	;# 
  2152  1E20                     	;# 
  2153  1E21                     	;# 
  2154  1E22                     	;# 
  2155  1E23                     	;# 
  2156  1E24                     	;# 
  2157  1E25                     	;# 
  2158  1E26                     	;# 
  2159  1E27                     	;# 
  2160  1E28                     	;# 
  2161  1E29                     	;# 
  2162  1E2A                     	;# 
  2163  1E2B                     	;# 
  2164  1E2C                     	;# 
  2165  1E2D                     	;# 
  2166  1E2E                     	;# 
  2167  1E2F                     	;# 
  2168  1E30                     	;# 
  2169  1E31                     	;# 
  2170  1E32                     	;# 
  2171  1E33                     	;# 
  2172  1E34                     	;# 
  2173  1E35                     	;# 
  2174  1E36                     	;# 
  2175  1E37                     	;# 
  2176  1E8F                     	;# 
  2177  1E90                     	;# 
  2178  1E91                     	;# 
  2179  1E92                     	;# 
  2180  1E93                     	;# 
  2181  1E9C                     	;# 
  2182  1EA1                     	;# 
  2183  1EA2                     	;# 
  2184  1EB1                     	;# 
  2185  1EBB                     	;# 
  2186  1EBC                     	;# 
  2187  1EBD                     	;# 
  2188  1EBE                     	;# 
  2189  1EC3                     	;# 
  2190  1EC5                     	;# 
  2191  1EC6                     	;# 
  2192  1EC7                     	;# 
  2193  1EC8                     	;# 
  2194  1EC9                     	;# 
  2195  1ECA                     	;# 
  2196  1ECB                     	;# 
  2197  1ECC                     	;# 
  2198  1ECD                     	;# 
  2199  1ECE                     	;# 
  2200  1F10                     	;# 
  2201  1F11                     	;# 
  2202  1F12                     	;# 
  2203  1F13                     	;# 
  2204  1F14                     	;# 
  2205  1F15                     	;# 
  2206  1F16                     	;# 
  2207  1F17                     	;# 
  2208  1F18                     	;# 
  2209  1F19                     	;# 
  2210  1F1A                     	;# 
  2211  1F1B                     	;# 
  2212  1F1C                     	;# 
  2213  1F1D                     	;# 
  2214  1F1E                     	;# 
  2215  1F1F                     	;# 
  2216  1F20                     	;# 
  2217  1F21                     	;# 
  2218  1F22                     	;# 
  2219  1F23                     	;# 
  2220  1F24                     	;# 
  2221  1F25                     	;# 
  2222  1F26                     	;# 
  2223  1F27                     	;# 
  2224  1F28                     	;# 
  2225  1F29                     	;# 
  2226  1F2A                     	;# 
  2227  1F2B                     	;# 
  2228  1F2C                     	;# 
  2229  1F2D                     	;# 
  2230  1F2E                     	;# 
  2231  1F2F                     	;# 
  2232  1F30                     	;# 
  2233  1F31                     	;# 
  2234  1F32                     	;# 
  2235  1F38                     	;# 
  2236  1F39                     	;# 
  2237  1F3A                     	;# 
  2238  1F3B                     	;# 
  2239  1F3C                     	;# 
  2240  1F3D                     	;# 
  2241  1F3E                     	;# 
  2242  1F3F                     	;# 
  2243  1F43                     	;# 
  2244  1F44                     	;# 
  2245  1F45                     	;# 
  2246  1F46                     	;# 
  2247  1F47                     	;# 
  2248  1F48                     	;# 
  2249  1F49                     	;# 
  2250  1F4A                     	;# 
  2251  1F4E                     	;# 
  2252  1F4F                     	;# 
  2253  1F50                     	;# 
  2254  1F51                     	;# 
  2255  1F52                     	;# 
  2256  1F53                     	;# 
  2257  1F54                     	;# 
  2258  1F55                     	;# 
  2259  1F59                     	;# 
  2260  1F5A                     	;# 
  2261  1F5B                     	;# 
  2262  1F5C                     	;# 
  2263  1F5D                     	;# 
  2264  1F64                     	;# 
  2265  1F65                     	;# 
  2266  1F66                     	;# 
  2267  1F67                     	;# 
  2268  1F68                     	;# 
  2269  1F69                     	;# 
  2270  1F6A                     	;# 
  2271  1F6B                     	;# 
  2272  1FE4                     	;# 
  2273  1FE5                     	;# 
  2274  1FE6                     	;# 
  2275  1FE7                     	;# 
  2276  1FE8                     	;# 
  2277  1FE8                     	;# 
  2278  1FE9                     	;# 
  2279  1FEA                     	;# 
  2280  1FEB                     	;# 
  2281  1FED                     	;# 
  2282  1FEE                     	;# 
  2283  1FEF                     	;# 
  2284  0000                     	;# 
  2285  0001                     	;# 
  2286  0002                     	;# 
  2287  0003                     	;# 
  2288  0004                     	;# 
  2289  0005                     	;# 
  2290  0006                     	;# 
  2291  0007                     	;# 
  2292  0008                     	;# 
  2293  0009                     	;# 
  2294  000A                     	;# 
  2295  000B                     	;# 
  2296  000C                     	;# 
  2297  000D                     	;# 
  2298  000E                     	;# 
  2299  000F                     	;# 
  2300  0010                     	;# 
  2301  0012                     	;# 
  2302  0013                     	;# 
  2303  0014                     	;# 
  2304  0015                     	;# 
  2305  0016                     	;# 
  2306  0018                     	;# 
  2307  0019                     	;# 
  2308  001A                     	;# 
  2309  001B                     	;# 
  2310  001C                     	;# 
  2311  009B                     	;# 
  2312  009B                     	;# 
  2313  009C                     	;# 
  2314  009D                     	;# 
  2315  009E                     	;# 
  2316  009F                     	;# 
  2317  0119                     	;# 
  2318  0119                     	;# 
  2319  0119                     	;# 
  2320  011A                     	;# 
  2321  011A                     	;# 
  2322  011A                     	;# 
  2323  011B                     	;# 
  2324  011B                     	;# 
  2325  011B                     	;# 
  2326  011B                     	;# 
  2327  011B                     	;# 
  2328  011C                     	;# 
  2329  011C                     	;# 
  2330  011C                     	;# 
  2331  011D                     	;# 
  2332  011D                     	;# 
  2333  011D                     	;# 
  2334  011E                     	;# 
  2335  011E                     	;# 
  2336  011E                     	;# 
  2337  011F                     	;# 
  2338  011F                     	;# 
  2339  011F                     	;# 
  2340  011F                     	;# 
  2341  011F                     	;# 
  2342  018C                     	;# 
  2343  018D                     	;# 
  2344  018E                     	;# 
  2345  018F                     	;# 
  2346  0190                     	;# 
  2347  0191                     	;# 
  2348  0192                     	;# 
  2349  0196                     	;# 
  2350  0197                     	;# 
  2351  0198                     	;# 
  2352  0199                     	;# 
  2353  019A                     	;# 
  2354  019B                     	;# 
  2355  019C                     	;# 
  2356  020C                     	;# 
  2357  020C                     	;# 
  2358  020D                     	;# 
  2359  020E                     	;# 
  2360  020F                     	;# 
  2361  020F                     	;# 
  2362  0210                     	;# 
  2363  0210                     	;# 
  2364  0211                     	;# 
  2365  0211                     	;# 
  2366  028C                     	;# 
  2367  028C                     	;# 
  2368  028D                     	;# 
  2369  028D                     	;# 
  2370  028E                     	;# 
  2371  028F                     	;# 
  2372  0290                     	;# 
  2373  0291                     	;# 
  2374  030C                     	;# 
  2375  030C                     	;# 
  2376  030D                     	;# 
  2377  030E                     	;# 
  2378  030F                     	;# 
  2379  0310                     	;# 
  2380  0310                     	;# 
  2381  0311                     	;# 
  2382  0312                     	;# 
  2383  0313                     	;# 
  2384  0314                     	;# 
  2385  0314                     	;# 
  2386  0315                     	;# 
  2387  0316                     	;# 
  2388  0318                     	;# 
  2389  0318                     	;# 
  2390  0319                     	;# 
  2391  031A                     	;# 
  2392  031C                     	;# 
  2393  031C                     	;# 
  2394  031D                     	;# 
  2395  031E                     	;# 
  2396  038C                     	;# 
  2397  038C                     	;# 
  2398  038D                     	;# 
  2399  038E                     	;# 
  2400  058C                     	;# 
  2401  058C                     	;# 
  2402  058D                     	;# 
  2403  058E                     	;# 
  2404  058F                     	;# 
  2405  058F                     	;# 
  2406  0590                     	;# 
  2407  0591                     	;# 
  2408  0592                     	;# 
  2409  0593                     	;# 
  2410  059C                     	;# 
  2411  059C                     	;# 
  2412  059D                     	;# 
  2413  059D                     	;# 
  2414  059E                     	;# 
  2415  059F                     	;# 
  2416  060C                     	;# 
  2417  060D                     	;# 
  2418  060E                     	;# 
  2419  060F                     	;# 
  2420  0610                     	;# 
  2421  0611                     	;# 
  2422  0612                     	;# 
  2423  0613                     	;# 
  2424  0614                     	;# 
  2425  070C                     	;# 
  2426  070D                     	;# 
  2427  070E                     	;# 
  2428  070F                     	;# 
  2429  0710                     	;# 
  2430  0711                     	;# 
  2431  0712                     	;# 
  2432  0713                     	;# 
  2433  0716                     	;# 
  2434  0717                     	;# 
  2435  0718                     	;# 
  2436  0719                     	;# 
  2437  071A                     	;# 
  2438  071B                     	;# 
  2439  071C                     	;# 
  2440  071D                     	;# 
  2441  0796                     	;# 
  2442  0797                     	;# 
  2443  0798                     	;# 
  2444  0799                     	;# 
  2445  079A                     	;# 
  2446  079B                     	;# 
  2447  080C                     	;# 
  2448  080D                     	;# 
  2449  080E                     	;# 
  2450  080F                     	;# 
  2451  0810                     	;# 
  2452  0811                     	;# 
  2453  0812                     	;# 
  2454  0813                     	;# 
  2455  0814                     	;# 
  2456  081A                     	;# 
  2457  081A                     	;# 
  2458  081B                     	;# 
  2459  081C                     	;# 
  2460  081C                     	;# 
  2461  081D                     	;# 
  2462  081E                     	;# 
  2463  081F                     	;# 
  2464  088C                     	;# 
  2465  088D                     	;# 
  2466  088E                     	;# 
  2467  088F                     	;# 
  2468  0890                     	;# 
  2469  0891                     	;# 
  2470  0892                     	;# 
  2471  0893                     	;# 
  2472  0895                     	;# 
  2473  0896                     	;# 
  2474  090C                     	;# 
  2475  090E                     	;# 
  2476  090F                     	;# 
  2477  091F                     	;# 
  2478  098F                     	;# 
  2479  098F                     	;# 
  2480  0990                     	;# 
  2481  0991                     	;# 
  2482  0992                     	;# 
  2483  0993                     	;# 
  2484  0994                     	;# 
  2485  0995                     	;# 
  2486  0996                     	;# 
  2487  0997                     	;# 
  2488  0A19                     	;# 
  2489  0A19                     	;# 
  2490  0A1A                     	;# 
  2491  0A1A                     	;# 
  2492  0A1B                     	;# 
  2493  0A1B                     	;# 
  2494  0A1B                     	;# 
  2495  0A1C                     	;# 
  2496  0A1C                     	;# 
  2497  0A1D                     	;# 
  2498  0A1D                     	;# 
  2499  0A1E                     	;# 
  2500  0A1E                     	;# 
  2501  0A1F                     	;# 
  2502  0A1F                     	;# 
  2503  0A1F                     	;# 
  2504  1E0F                     	;# 
  2505  1E10                     	;# 
  2506  1E11                     	;# 
  2507  1E12                     	;# 
  2508  1E13                     	;# 
  2509  1E14                     	;# 
  2510  1E15                     	;# 
  2511  1E16                     	;# 
  2512  1E17                     	;# 
  2513  1E18                     	;# 
  2514  1E19                     	;# 
  2515  1E1A                     	;# 
  2516  1E1B                     	;# 
  2517  1E1C                     	;# 
  2518  1E1D                     	;# 
  2519  1E1E                     	;# 
  2520  1E1F                     	;# 
  2521  1E20                     	;# 
  2522  1E21                     	;# 
  2523  1E22                     	;# 
  2524  1E23                     	;# 
  2525  1E24                     	;# 
  2526  1E25                     	;# 
  2527  1E26                     	;# 
  2528  1E27                     	;# 
  2529  1E28                     	;# 
  2530  1E29                     	;# 
  2531  1E2A                     	;# 
  2532  1E2B                     	;# 
  2533  1E2C                     	;# 
  2534  1E2D                     	;# 
  2535  1E2E                     	;# 
  2536  1E2F                     	;# 
  2537  1E30                     	;# 
  2538  1E31                     	;# 
  2539  1E32                     	;# 
  2540  1E33                     	;# 
  2541  1E34                     	;# 
  2542  1E35                     	;# 
  2543  1E36                     	;# 
  2544  1E37                     	;# 
  2545  1E8F                     	;# 
  2546  1E90                     	;# 
  2547  1E91                     	;# 
  2548  1E92                     	;# 
  2549  1E93                     	;# 
  2550  1E9C                     	;# 
  2551  1EA1                     	;# 
  2552  1EA2                     	;# 
  2553  1EB1                     	;# 
  2554  1EBB                     	;# 
  2555  1EBC                     	;# 
  2556  1EBD                     	;# 
  2557  1EBE                     	;# 
  2558  1EC3                     	;# 
  2559  1EC5                     	;# 
  2560  1EC6                     	;# 
  2561  1EC7                     	;# 
  2562  1EC8                     	;# 
  2563  1EC9                     	;# 
  2564  1ECA                     	;# 
  2565  1ECB                     	;# 
  2566  1ECC                     	;# 
  2567  1ECD                     	;# 
  2568  1ECE                     	;# 
  2569  1F10                     	;# 
  2570  1F11                     	;# 
  2571  1F12                     	;# 
  2572  1F13                     	;# 
  2573  1F14                     	;# 
  2574  1F15                     	;# 
  2575  1F16                     	;# 
  2576  1F17                     	;# 
  2577  1F18                     	;# 
  2578  1F19                     	;# 
  2579  1F1A                     	;# 
  2580  1F1B                     	;# 
  2581  1F1C                     	;# 
  2582  1F1D                     	;# 
  2583  1F1E                     	;# 
  2584  1F1F                     	;# 
  2585  1F20                     	;# 
  2586  1F21                     	;# 
  2587  1F22                     	;# 
  2588  1F23                     	;# 
  2589  1F24                     	;# 
  2590  1F25                     	;# 
  2591  1F26                     	;# 
  2592  1F27                     	;# 
  2593  1F28                     	;# 
  2594  1F29                     	;# 
  2595  1F2A                     	;# 
  2596  1F2B                     	;# 
  2597  1F2C                     	;# 
  2598  1F2D                     	;# 
  2599  1F2E                     	;# 
  2600  1F2F                     	;# 
  2601  1F30                     	;# 
  2602  1F31                     	;# 
  2603  1F32                     	;# 
  2604  1F38                     	;# 
  2605  1F39                     	;# 
  2606  1F3A                     	;# 
  2607  1F3B                     	;# 
  2608  1F3C                     	;# 
  2609  1F3D                     	;# 
  2610  1F3E                     	;# 
  2611  1F3F                     	;# 
  2612  1F43                     	;# 
  2613  1F44                     	;# 
  2614  1F45                     	;# 
  2615  1F46                     	;# 
  2616  1F47                     	;# 
  2617  1F48                     	;# 
  2618  1F49                     	;# 
  2619  1F4A                     	;# 
  2620  1F4E                     	;# 
  2621  1F4F                     	;# 
  2622  1F50                     	;# 
  2623  1F51                     	;# 
  2624  1F52                     	;# 
  2625  1F53                     	;# 
  2626  1F54                     	;# 
  2627  1F55                     	;# 
  2628  1F59                     	;# 
  2629  1F5A                     	;# 
  2630  1F5B                     	;# 
  2631  1F5C                     	;# 
  2632  1F5D                     	;# 
  2633  1F64                     	;# 
  2634  1F65                     	;# 
  2635  1F66                     	;# 
  2636  1F67                     	;# 
  2637  1F68                     	;# 
  2638  1F69                     	;# 
  2639  1F6A                     	;# 
  2640  1F6B                     	;# 
  2641  1FE4                     	;# 
  2642  1FE5                     	;# 
  2643  1FE6                     	;# 
  2644  1FE7                     	;# 
  2645  1FE8                     	;# 
  2646  1FE8                     	;# 
  2647  1FE9                     	;# 
  2648  1FEA                     	;# 
  2649  1FEB                     	;# 
  2650  1FED                     	;# 
  2651  1FEE                     	;# 
  2652  1FEF                     	;# 
  2653                           
  2654 ;; Function _EUSART1_DefaultFramingErrorHandler is unused but had its address taken
  2655  0000                     
  2656 ;; Function _EUSART1_DefaultOverrunErrorHandler is unused but had its address taken
  2657  0000                     
  2658 ;; Function _EUSART1_DefaultErrorHandler is unused but had its address taken
  2659  0000                     
  2660                           	psect	idataCOMMON
  2661  056B                     __pidataCOMMON:
  2662                           
  2663                           ;initializer for _lane
  2664  056B  346C               	retlw	108
  2665                           
  2666                           	psect	idataBANK0
  2667  056C                     __pidataBANK0:
  2668                           
  2669                           ;initializer for _total_digits
  2670  056C  3409               	retlw	9
  2671  056D  3400               	retlw	0
  2672                           
  2673                           	psect	stringtext1
  2674  0800                     __pstringtext1:
  2675  0800                     _spi2_configuration:
  2676  0800  3402               	retlw	2
  2677  0801  3440               	retlw	64
  2678  0802  3401               	retlw	1
  2679  0803  3400               	retlw	0
  2680  0804                     __end_of_spi2_configuration:
  2681                           
  2682                           	psect	nvBANK0
  2683  002D                     __pnvBANK0:
  2684  002D                     _EUSART1_ErrorHandler:
  2685  002D                     	ds	2
  2686  002F                     _EUSART1_OverrunErrorHandler:
  2687  002F                     	ds	2
  2688  0031                     _EUSART1_FramingErrorHandler:
  2689  0031                     	ds	2
  2690  001B                     _LATDbits	set	27
  2691  001C                     _LATEbits	set	28
  2692  0013                     _TRISBbits	set	19
  2693  0015                     _TRISD	set	21
  2694  0014                     _TRISC	set	20
  2695  0013                     _TRISB	set	19
  2696  0012                     _TRISA	set	18
  2697  0016                     _TRISE	set	22
  2698  001A                     _LATC	set	26
  2699  0019                     _LATB	set	25
  2700  0018                     _LATA	set	24
  2701  001B                     _LATD	set	27
  2702  001C                     _LATE	set	28
  2703  011A                     _TX1REG	set	282
  2704  0119                     _RC1REG	set	281
  2705  011D                     _RC1STAbits	set	285
  2706  011E                     _TX1STAbits	set	286
  2707  011C                     _SP1BRGH	set	284
  2708  011B                     _SP1BRGL	set	283
  2709  011E                     _TX1STA	set	286
  2710  011D                     _RC1STA	set	285
  2711  011F                     _BAUD1CON	set	287
  2712  0196                     _SSP2BUF	set	406
  2713  019B                     _SSP2CON2	set	411
  2714  019A                     _SSP2CON1bits	set	410
  2715  0197                     _SSP2ADD	set	407
  2716  019A                     _SSP2CON1	set	410
  2717  0199                     _SSP2STAT	set	409
  2718  070F                     _PIR3bits	set	1807
  2719  079B                     _PMD5	set	1947
  2720  079A                     _PMD4	set	1946
  2721  0799                     _PMD3	set	1945
  2722  0798                     _PMD2	set	1944
  2723  0797                     _PMD1	set	1943
  2724  0796                     _PMD0	set	1942
  2725  0892                     _OSCTUNE	set	2194
  2726  0890                     _OSCSTAT	set	2192
  2727  0893                     _OSCFRQ	set	2195
  2728  0891                     _OSCEN	set	2193
  2729  088F                     _OSCCON3	set	2191
  2730  088D                     _OSCCON1	set	2189
  2731  1ECB                     _RX1DTPPS	set	7883
  2732  1EC8                     _SSP2CLKPPS	set	7880
  2733  1EC9                     _SSP2DATPPS	set	7881
  2734  1F1D                     _RB5PPS	set	7965
  2735  1F26                     _RC6PPS	set	7974
  2736  1F1B                     _RB3PPS	set	7963
  2737  1F19                     _RB1PPS	set	7961
  2738  1F68                     _INLVLE	set	8040
  2739  1F5D                     _INLVLD	set	8029
  2740  1F52                     _INLVLC	set	8018
  2741  1F47                     _INLVLB	set	8007
  2742  1F3C                     _INLVLA	set	7996
  2743  1F67                     _SLRCONE	set	8039
  2744  1F5C                     _SLRCOND	set	8028
  2745  1F51                     _SLRCONC	set	8017
  2746  1F46                     _SLRCONB	set	8006
  2747  1F3B                     _SLRCONA	set	7995
  2748  1F5B                     _ODCOND	set	8027
  2749  1F50                     _ODCONC	set	8016
  2750  1F45                     _ODCONB	set	8005
  2751  1F3A                     _ODCONA	set	7994
  2752  1F66                     _ODCONE	set	8038
  2753  1F4F                     _WPUC	set	8015
  2754  1F39                     _WPUA	set	7993
  2755  1F44                     _WPUB	set	8004
  2756  1F65                     _WPUE	set	8037
  2757  1F5A                     _WPUD	set	8026
  2758  1F38                     _ANSELA	set	7992
  2759  1F64                     _ANSELE	set	8036
  2760  1F43                     _ANSELB	set	8003
  2761  1F4E                     _ANSELC	set	8014
  2762  1F59                     _ANSELD	set	8025
  2763                           
  2764                           	psect	cinit
  2765  07E7                     start_initialization:	
  2766                           ; #config settings
  2767                           
  2768  07E7                     __initialization:
  2769                           
  2770                           ; Initialize objects allocated to COMMON
  2771  07E7  3185  256B  3187   	fcall	__pidataCOMMON	;fetch initializer
  2772  07EA  00FD               	movwf	__pdataCOMMON& (0+127)
  2773                           
  2774                           ; Initialize objects allocated to BANK0
  2775  07EB  3185  256C  3187   	fcall	__pidataBANK0	;fetch initializer
  2776  07EE  00B3               	movwf	__pdataBANK0& (0+127)
  2777  07EF  3185  256D  3187   	fcall	__pidataBANK0+1	;fetch initializer
  2778  07F2  00B4               	movwf	(__pdataBANK0+1)& (0+127)
  2779                           
  2780                           ; Clear objects allocated to COMMON
  2781  07F3  01FB               	clrf	__pbssCOMMON& (0+127)
  2782  07F4  01FC               	clrf	(__pbssCOMMON+1)& (0+127)
  2783                           
  2784                           ; Clear objects allocated to BANK0
  2785  07F5  3020               	movlw	low __pbssBANK0
  2786  07F6  0084               	movwf	4
  2787  07F7  3000               	movlw	high __pbssBANK0
  2788  07F8  0085               	movwf	5
  2789  07F9  300D               	movlw	13
  2790  07FA  3185  2588  3187   	fcall	clear_ram0
  2791  07FD                     end_of_initialization:	
  2792                           ;End of C runtime variable initialization code
  2793                           
  2794  07FD                     __end_of__initialization:
  2795  07FD  0140               	movlb	0
  2796  07FE  3185  2D96         	ljmp	_main	;jump to C main() function
  2797                           
  2798                           	psect	bssCOMMON
  2799  007B                     __pbssCOMMON:
  2800  007B                     _temp:
  2801  007B                     	ds	1
  2802  007C                     _eusart1RxLastError:
  2803  007C                     	ds	1
  2804                           
  2805                           	psect	dataCOMMON
  2806  007D                     __pdataCOMMON:
  2807  007D                     _lane:
  2808  007D                     	ds	1
  2809                           
  2810                           	psect	bssBANK0
  2811  0020                     __pbssBANK0:
  2812  0020                     _rec_chars_recv:
  2813  0020                     	ds	2
  2814  0022                     _rec_char_posn:
  2815  0022                     	ds	2
  2816  0024                     _input_arr:
  2817  0024                     	ds	9
  2818                           
  2819                           	psect	dataBANK0
  2820  0033                     __pdataBANK0:
  2821  0033                     _total_digits:
  2822  0033                     	ds	2
  2823                           
  2824                           	psect	clrtext
  2825  0588                     clear_ram0:	
  2826                           ;	Called with FSR0 containing the base address, and
  2827                           ;	WREG with the size to clear
  2828                           
  2829  0588  0064               	clrwdt	;clear the watchdog before getting into this loop
  2830  0589                     clrloop0:
  2831  0589  0180               	clrf	0	;clear RAM location pointed to by FSR
  2832  058A  3101               	addfsr 0,1
  2833  058B  0B89               	decfsz	9,f	;Have we reached the end of clearing yet?
  2834  058C  2D89               	goto	clrloop0	;have we reached the end yet?
  2835  058D  3400               	retlw	0	;all done for this memory range, return
  2836                           
  2837                           	psect	cstackCOMMON
  2838  0070                     __pcstackCOMMON:
  2839  0070                     ?_PMD_Initialize:
  2840  0070                     ??_PMD_Initialize:	
  2841                           ; 1 bytes @ 0x0
  2842                           
  2843  0070                     ?_SPI2_Initialize:	
  2844                           ; 1 bytes @ 0x0
  2845                           
  2846  0070                     ??_SPI2_Initialize:	
  2847                           ; 1 bytes @ 0x0
  2848                           
  2849  0070                     ?_OSCILLATOR_Initialize:	
  2850                           ; 1 bytes @ 0x0
  2851                           
  2852  0070                     ??_OSCILLATOR_Initialize:	
  2853                           ; 1 bytes @ 0x0
  2854                           
  2855  0070                     ?_EUSART1_Initialize:	
  2856                           ; 1 bytes @ 0x0
  2857                           
  2858  0070                     ?_EUSART1_SetFramingErrorHandler:	
  2859                           ; 1 bytes @ 0x0
  2860                           
  2861  0070                     ?_EUSART1_SetOverrunErrorHandler:	
  2862                           ; 1 bytes @ 0x0
  2863                           
  2864  0070                     ?_EUSART1_SetErrorHandler:	
  2865                           ; 1 bytes @ 0x0
  2866                           
  2867  0070                     ?_UART1_Command_INT:	
  2868                           ; 1 bytes @ 0x0
  2869                           
  2870  0070                     ?_display:	
  2871                           ; 1 bytes @ 0x0
  2872                           
  2873  0070                     ?_PIN_MANAGER_Initialize:	
  2874                           ; 1 bytes @ 0x0
  2875                           
  2876  0070                     ??_PIN_MANAGER_Initialize:	
  2877                           ; 1 bytes @ 0x0
  2878                           
  2879  0070                     ?_SYSTEM_Initialize:	
  2880                           ; 1 bytes @ 0x0
  2881                           
  2882  0070                     ?_EUSART1_is_rx_ready:	
  2883                           ; 1 bytes @ 0x0
  2884                           
  2885  0070                     ??_EUSART1_is_rx_ready:	
  2886                           ; 1 bytes @ 0x0
  2887                           
  2888  0070                     ?_EUSART1_Read:	
  2889                           ; 1 bytes @ 0x0
  2890                           
  2891  0070                     ??_EUSART1_Read:	
  2892                           ; 1 bytes @ 0x0
  2893                           
  2894  0070                     ?_SPI2_Open:	
  2895                           ; 1 bytes @ 0x0
  2896                           
  2897  0070                     ??_SPI2_Open:	
  2898                           ; 1 bytes @ 0x0
  2899                           
  2900  0070                     ?_SPI2_Close:	
  2901                           ; 1 bytes @ 0x0
  2902                           
  2903  0070                     ??_SPI2_Close:	
  2904                           ; 1 bytes @ 0x0
  2905                           
  2906  0070                     ?_SPI2_ExchangeByte:	
  2907                           ; 1 bytes @ 0x0
  2908                           
  2909  0070                     ??_SPI2_ExchangeByte:	
  2910                           ; 1 bytes @ 0x0
  2911                           
  2912  0070                     ?_main:	
  2913                           ; 1 bytes @ 0x0
  2914                           
  2915  0070                     SPI2_ExchangeByte@data:	
  2916                           ; 1 bytes @ 0x0
  2917                           
  2918  0070                     EUSART1_SetFramingErrorHandler@interruptHandler:	
  2919                           ; 1 bytes @ 0x0
  2920                           
  2921  0070                     EUSART1_SetOverrunErrorHandler@interruptHandler:	
  2922                           ; 2 bytes @ 0x0
  2923                           
  2924  0070                     EUSART1_SetErrorHandler@interruptHandler:	
  2925                           ; 2 bytes @ 0x0
  2926                           
  2927                           
  2928                           ; 2 bytes @ 0x0
  2929  0070                     	ds	2
  2930  0072                     ??_EUSART1_Initialize:
  2931  0072                     ??_EUSART1_SetFramingErrorHandler:	
  2932                           ; 1 bytes @ 0x2
  2933                           
  2934  0072                     ??_EUSART1_SetOverrunErrorHandler:	
  2935                           ; 1 bytes @ 0x2
  2936                           
  2937  0072                     ??_EUSART1_SetErrorHandler:	
  2938                           ; 1 bytes @ 0x2
  2939                           
  2940  0072                     ??_SYSTEM_Initialize:	
  2941                           ; 1 bytes @ 0x2
  2942                           
  2943                           
  2944                           ; 1 bytes @ 0x2
  2945  0072                     	ds	1
  2946  0073                     SPI2_Open@spi2UniqueConfiguration:
  2947                           
  2948                           ; 1 bytes @ 0x3
  2949  0073                     	ds	1
  2950  0074                     ??_display:
  2951                           
  2952                           ; 1 bytes @ 0x4
  2953  0074                     	ds	3
  2954  0077                     display@p_input_arr:
  2955                           
  2956                           ; 1 bytes @ 0x7
  2957  0077                     	ds	1
  2958  0078                     display@i:
  2959                           
  2960                           ; 2 bytes @ 0x8
  2961  0078                     	ds	2
  2962  007A                     ??_UART1_Command_INT:
  2963                           
  2964                           ; 1 bytes @ 0xA
  2965  007A                     	ds	1
  2966  007B                     ??_main:
  2967                           
  2968                           	psect	maintext
  2969  0596                     __pmaintext:	
  2970                           ; 1 bytes @ 0xB
  2971 ;;
  2972 ;;Main: autosize = 0, tempsize = 0, incstack = 0, save=0
  2973 ;;
  2974 ;; *************** function _main *****************
  2975 ;; Defined at:
  2976 ;;		line 15 in file "main.c"
  2977 ;; Parameters:    Size  Location     Type
  2978 ;;		None
  2979 ;; Auto vars:     Size  Location     Type
  2980 ;;		None
  2981 ;; Return value:  Size  Location     Type
  2982 ;;                  1    wreg      void 
  2983 ;; Registers used:
  2984 ;;		wreg, fsr0l, fsr0h, fsr1l, fsr1h, status,2, status,0, pclath, cstack
  2985 ;; Tracked objects:
  2986 ;;		On entry : B3F/0
  2987 ;;		On exit  : 0/0
  2988 ;;		Unchanged: 0/0
  2989 ;; Data sizes:     COMMON   BANK0   BANK1   BANK2   BANK3   BANK4   BANK5   BANK6   BANK7   BANK8   BANK9  BANK10  BANK1
      +1  BANK12  BANK13  BANK14  BANK15  BANK16  BANK17  BANK18  BANK19  BANK20  BANK21  BANK22  BANK23  BANK24  BANK25
  2990 ;;      Params:         0       0       0       0       0       0       0       0       0       0       0       0       
      +0       0       0       0       0       0       0       0       0       0       0       0       0       0       0
  2991 ;;      Locals:         0       0       0       0       0       0       0       0       0       0       0       0       
      +0       0       0       0       0       0       0       0       0       0       0       0       0       0       0
  2992 ;;      Temps:          0       0       0       0       0       0       0       0       0       0       0       0       
      +0       0       0       0       0       0       0       0       0       0       0       0       0       0       0
  2993 ;;      Totals:         0       0       0       0       0       0       0       0       0       0       0       0       
      +0       0       0       0       0       0       0       0       0       0       0       0       0       0       0
  2994 ;;Total ram usage:        0 bytes
  2995 ;; Hardware stack levels required when called: 3
  2996 ;; This function calls:
  2997 ;;		_SYSTEM_Initialize
  2998 ;;		_UART1_Command_INT
  2999 ;; This function is called by:
  3000 ;;		Startup code after reset
  3001 ;; This function uses a non-reentrant model
  3002 ;;
  3003                           
  3004                           
  3005                           ;psect for function _main
  3006  0596                     _main:
  3007  0596                     l1416:	
  3008                           ;incstack = 0
  3009                           ; Regs used in _main: [wreg-fsr1h+status,2+status,0+pclath+cstack]
  3010                           
  3011                           
  3012                           ;main.c: 18:     SYSTEM_Initialize();
  3013  0596  3185  25C5  3185   	fcall	_SYSTEM_Initialize
  3014  0599                     l1418:
  3015                           
  3016                           ;main.c: 36:     {;main.c: 37:         UART1_Command_INT();
  3017  0599  3186  26A5  3185   	fcall	_UART1_Command_INT
  3018  059C  2D99               	goto	l1418
  3019  059D  3180  2802         	ljmp	start
  3020  059F                     __end_of_main:
  3021                           
  3022                           	psect	text1
  3023  06A5                     __ptext1:	
  3024 ;; *************** function _UART1_Command_INT *****************
  3025 ;; Defined at:
  3026 ;;		line 24 in file "UART.c"
  3027 ;; Parameters:    Size  Location     Type
  3028 ;;		None
  3029 ;; Auto vars:     Size  Location     Type
  3030 ;;		None
  3031 ;; Return value:  Size  Location     Type
  3032 ;;                  1    wreg      void 
  3033 ;; Registers used:
  3034 ;;		wreg, fsr0l, fsr0h, fsr1l, fsr1h, status,2, status,0, pclath, cstack
  3035 ;; Tracked objects:
  3036 ;;		On entry : 0/0
  3037 ;;		On exit  : 0/0
  3038 ;;		Unchanged: 0/0
  3039 ;; Data sizes:     COMMON   BANK0   BANK1   BANK2   BANK3   BANK4   BANK5   BANK6   BANK7   BANK8   BANK9  BANK10  BANK1
      +1  BANK12  BANK13  BANK14  BANK15  BANK16  BANK17  BANK18  BANK19  BANK20  BANK21  BANK22  BANK23  BANK24  BANK25
  3040 ;;      Params:         0       0       0       0       0       0       0       0       0       0       0       0       
      +0       0       0       0       0       0       0       0       0       0       0       0       0       0       0
  3041 ;;      Locals:         0       0       0       0       0       0       0       0       0       0       0       0       
      +0       0       0       0       0       0       0       0       0       0       0       0       0       0       0
  3042 ;;      Temps:          1       0       0       0       0       0       0       0       0       0       0       0       
      +0       0       0       0       0       0       0       0       0       0       0       0       0       0       0
  3043 ;;      Totals:         1       0       0       0       0       0       0       0       0       0       0       0       
      +0       0       0       0       0       0       0       0       0       0       0       0       0       0       0
  3044 ;;Total ram usage:        1 bytes
  3045 ;; Hardware stack levels used: 1
  3046 ;; Hardware stack levels required when called: 2
  3047 ;; This function calls:
  3048 ;;		_EUSART1_Read
  3049 ;;		_EUSART1_is_rx_ready
  3050 ;;		_display
  3051 ;; This function is called by:
  3052 ;;		_main
  3053 ;; This function uses a non-reentrant model
  3054 ;;
  3055                           
  3056                           
  3057                           ;psect for function _UART1_Command_INT
  3058  06A5                     _UART1_Command_INT:
  3059  06A5                     l1344:	
  3060                           ;incstack = 0
  3061                           ; Regs used in _UART1_Command_INT: [wreg-fsr1h+status,2+status,0+pclath+cstack]
  3062                           
  3063                           
  3064                           ;UART.c: 25:     if ((EUSART1_is_rx_ready())) {
  3065  06A5  3185  2571  3186   	fcall	_EUSART1_is_rx_ready
  3066  06A8  3A00               	xorlw	0
  3067  06A9  1903               	skipnz
  3068  06AA  2EAC               	goto	u241
  3069  06AB  2EAD               	goto	u240
  3070  06AC                     u241:
  3071  06AC  2F13               	goto	l354
  3072  06AD                     u240:
  3073  06AD                     l1346:
  3074                           
  3075                           ;UART.c: 27:     temp = EUSART1_Read();
  3076  06AD  3185  25B6  3186   	fcall	_EUSART1_Read
  3077  06B0  00FA               	movwf	??_UART1_Command_INT
  3078  06B1  087A               	movf	??_UART1_Command_INT,w
  3079  06B2  00FB               	movwf	_temp
  3080                           
  3081                           ;UART.c: 31:         switch(rec_char_posn) {
  3082  06B3  2EFC               	goto	l1388
  3083  06B4                     l1348:
  3084                           
  3085                           ;UART.c: 33:             {;UART.c: 34:                 if (temp == 'H') {
  3086  06B4  3048               	movlw	72
  3087  06B5  067B               	xorwf	_temp,w
  3088  06B6  1D03               	btfss	3,2
  3089  06B7  2EB9               	goto	u251
  3090  06B8  2EBA               	goto	u250
  3091  06B9                     u251:
  3092  06B9  2EBF               	goto	l1352
  3093  06BA                     u250:
  3094  06BA                     l1350:
  3095                           
  3096                           ;UART.c: 35:                     rec_char_posn++;
  3097  06BA  3001               	movlw	1
  3098  06BB  07A2               	addwf	_rec_char_posn,f
  3099  06BC  3000               	movlw	0
  3100  06BD  3DA3               	addwfc	_rec_char_posn+1,f
  3101                           
  3102                           ;UART.c: 36:                 } else {
  3103  06BE  2F13               	goto	l354
  3104  06BF                     l1352:
  3105                           
  3106                           ;UART.c: 37:                     rec_char_posn = 0;
  3107  06BF  01A2               	clrf	_rec_char_posn
  3108  06C0  01A3               	clrf	_rec_char_posn+1
  3109  06C1  2F13               	goto	l354
  3110  06C2                     l1354:
  3111                           
  3112                           ;UART.c: 42:             {;UART.c: 43:                 if (temp == 'P') {
  3113  06C2  3050               	movlw	80
  3114  06C3  067B               	xorwf	_temp,w
  3115  06C4  1D03               	btfss	3,2
  3116  06C5  2EC7               	goto	u261
  3117  06C6  2EC8               	goto	u260
  3118  06C7                     u261:
  3119  06C7  2EBF               	goto	l1352
  3120  06C8                     u260:
  3121  06C8  2EBA               	goto	l1350
  3122  06C9                     l1360:
  3123                           
  3124                           ;UART.c: 51:             {;UART.c: 52:                 if (temp == 'R') {
  3125  06C9  3052               	movlw	82
  3126  06CA  067B               	xorwf	_temp,w
  3127  06CB  1D03               	btfss	3,2
  3128  06CC  2ECE               	goto	u271
  3129  06CD  2ECF               	goto	u270
  3130  06CE                     u271:
  3131  06CE  2EBF               	goto	l1352
  3132  06CF                     u270:
  3133  06CF  2EBA               	goto	l1350
  3134  06D0                     l1366:
  3135                           
  3136                           ;UART.c: 60:             {;UART.c: 61:                 if (temp == 'l') {
  3137  06D0  306C               	movlw	108
  3138  06D1  067B               	xorwf	_temp,w
  3139  06D2  1D03               	btfss	3,2
  3140  06D3  2ED5               	goto	u281
  3141  06D4  2ED6               	goto	u280
  3142  06D5                     u281:
  3143  06D5  2EBF               	goto	l1352
  3144  06D6                     u280:
  3145  06D6  2EBA               	goto	l1350
  3146  06D7                     l1372:
  3147                           
  3148                           ;UART.c: 69:             {;UART.c: 70:                 input_arr[rec_chars_recv] = temp;
  3149  06D7  087B               	movf	_temp,w
  3150  06D8  00FA               	movwf	??_UART1_Command_INT
  3151  06D9  0820               	movf	_rec_chars_recv,w
  3152  06DA  3E24               	addlw	(low (_input_arr| 0))& (0+255)
  3153  06DB  0086               	movwf	6
  3154  06DC  0187               	clrf	7
  3155  06DD  087A               	movf	??_UART1_Command_INT,w
  3156  06DE  0081               	movwf	1
  3157  06DF                     l1374:
  3158                           
  3159                           ;UART.c: 72:                 rec_chars_recv++;
  3160  06DF  3001               	movlw	1
  3161  06E0  07A0               	addwf	_rec_chars_recv,f
  3162  06E1  3000               	movlw	0
  3163  06E2  3DA1               	addwfc	_rec_chars_recv+1,f
  3164  06E3                     l1376:
  3165  06E3  3009               	movlw	9
  3166  06E4  0620               	xorwf	_rec_chars_recv,w
  3167  06E5  0421               	iorwf	_rec_chars_recv+1,w
  3168  06E6  1D03               	btfss	3,2
  3169  06E7  2EE9               	goto	u291
  3170  06E8  2EEA               	goto	u290
  3171  06E9                     u291:
  3172  06E9  2F13               	goto	l354
  3173  06EA                     u290:
  3174  06EA                     l350:	
  3175                           ;UART.c: 76:                     do { LATEbits.LATE0 = 0; } while(0);
  3176                           
  3177  06EA  101C               	bcf	28,0	;volatile
  3178  06EB                     l1378:
  3179                           
  3180                           ;UART.c: 78:                     _delay((unsigned long)((100)*(4000000/4000.0)));
  3181  06EB  3082               	movlw	130
  3182  06EC  00FA               	movwf	??_UART1_Command_INT
  3183  06ED  30DE               	movlw	222
  3184  06EE                     u327:
  3185  06EE  0B89               	decfsz	9,f
  3186  06EF  2EEE               	goto	u327
  3187  06F0  0BFA               	decfsz	??_UART1_Command_INT,f
  3188  06F1  2EEE               	goto	u327
  3189  06F2                     l1380:
  3190  06F2  0140               	movlb	0	; select bank0
  3191  06F3  141C               	bsf	28,0	;volatile
  3192  06F4                     l1382:
  3193                           
  3194                           ;UART.c: 82:                     display(input_arr);
  3195  06F4  3024               	movlw	(low (_input_arr| 0))& (0+255)
  3196  06F5  3187  2714  3186   	fcall	_display
  3197  06F8                     l1384:
  3198                           
  3199                           ;UART.c: 84:                     rec_chars_recv = 0;
  3200  06F8  0140               	movlb	0	; select bank0
  3201  06F9  01A0               	clrf	_rec_chars_recv
  3202  06FA  01A1               	clrf	_rec_chars_recv+1
  3203  06FB  2EBF               	goto	l1352
  3204  06FC                     l1388:
  3205                           
  3206                           ; Switch on 2 bytes has been partitioned into a top level switch of size 1, and 1 sub-sw
      +                          itches
  3207                           ; Switch size 1, requested type "simple"
  3208                           ; Number of cases is 1, Range of values is 0 to 0
  3209                           ; switch strategies available:
  3210                           ; Name         Instructions Cycles
  3211                           ; simple_byte            4     3 (average)
  3212                           ; direct_byte            8     6 (fixed)
  3213                           ; jumptable            260     6 (fixed)
  3214                           ;	Chosen strategy is simple_byte
  3215  06FC  0140               	movlb	0	; select bank0
  3216  06FD  0823               	movf	_rec_char_posn+1,w
  3217  06FE  3A00               	xorlw	0	; case 0
  3218  06FF  1903               	skipnz
  3219  0700  2F02               	goto	l1470
  3220  0701  2F13               	goto	l354
  3221  0702                     l1470:
  3222                           
  3223                           ; Switch size 1, requested type "simple"
  3224                           ; Number of cases is 5, Range of values is 0 to 4
  3225                           ; switch strategies available:
  3226                           ; Name         Instructions Cycles
  3227                           ; direct_byte           16     6 (fixed)
  3228                           ; simple_byte           16     9 (average)
  3229                           ; jumptable            260     6 (fixed)
  3230                           ;	Chosen strategy is simple_byte
  3231  0702  0822               	movf	_rec_char_posn,w
  3232  0703  3A00               	xorlw	0	; case 0
  3233  0704  1903               	skipnz
  3234  0705  2EB4               	goto	l1348
  3235  0706  3A01               	xorlw	1	; case 1
  3236  0707  1903               	skipnz
  3237  0708  2EC2               	goto	l1354
  3238  0709  3A03               	xorlw	3	; case 2
  3239  070A  1903               	skipnz
  3240  070B  2EC9               	goto	l1360
  3241  070C  3A01               	xorlw	1	; case 3
  3242  070D  1903               	skipnz
  3243  070E  2ED0               	goto	l1366
  3244  070F  3A07               	xorlw	7	; case 4
  3245  0710  1903               	skipnz
  3246  0711  2ED7               	goto	l1372
  3247  0712  2F13               	goto	l354
  3248  0713                     l354:
  3249  0713  0008               	return
  3250  0714                     __end_of_UART1_Command_INT:
  3251                           
  3252                           	psect	text2
  3253  0714                     __ptext2:	
  3254 ;; *************** function _display *****************
  3255 ;; Defined at:
  3256 ;;		line 17 in file "display.c"
  3257 ;; Parameters:    Size  Location     Type
  3258 ;;  p_input_arr     1    wreg     PTR unsigned char 
  3259 ;;		 -> input_arr(9), 
  3260 ;; Auto vars:     Size  Location     Type
  3261 ;;  p_input_arr     1    7[COMMON] PTR unsigned char 
  3262 ;;		 -> input_arr(9), 
  3263 ;;  i               2    8[COMMON] int 
  3264 ;; Return value:  Size  Location     Type
  3265 ;;                  1    wreg      void 
  3266 ;; Registers used:
  3267 ;;		wreg, fsr0l, fsr0h, fsr1l, fsr1h, status,2, status,0, pclath, cstack
  3268 ;; Tracked objects:
  3269 ;;		On entry : 0/0
  3270 ;;		On exit  : 0/0
  3271 ;;		Unchanged: 0/0
  3272 ;; Data sizes:     COMMON   BANK0   BANK1   BANK2   BANK3   BANK4   BANK5   BANK6   BANK7   BANK8   BANK9  BANK10  BANK1
      +1  BANK12  BANK13  BANK14  BANK15  BANK16  BANK17  BANK18  BANK19  BANK20  BANK21  BANK22  BANK23  BANK24  BANK25
  3273 ;;      Params:         0       0       0       0       0       0       0       0       0       0       0       0       
      +0       0       0       0       0       0       0       0       0       0       0       0       0       0       0
  3274 ;;      Locals:         3       0       0       0       0       0       0       0       0       0       0       0       
      +0       0       0       0       0       0       0       0       0       0       0       0       0       0       0
  3275 ;;      Temps:          3       0       0       0       0       0       0       0       0       0       0       0       
      +0       0       0       0       0       0       0       0       0       0       0       0       0       0       0
  3276 ;;      Totals:         6       0       0       0       0       0       0       0       0       0       0       0       
      +0       0       0       0       0       0       0       0       0       0       0       0       0       0       0
  3277 ;;Total ram usage:        6 bytes
  3278 ;; Hardware stack levels used: 1
  3279 ;; Hardware stack levels required when called: 1
  3280 ;; This function calls:
  3281 ;;		_SPI2_Close
  3282 ;;		_SPI2_ExchangeByte
  3283 ;;		_SPI2_Open
  3284 ;; This function is called by:
  3285 ;;		_UART1_Command_INT
  3286 ;; This function uses a non-reentrant model
  3287 ;;
  3288                           
  3289                           
  3290                           ;psect for function _display
  3291  0714                     _display:
  3292                           
  3293                           ;incstack = 0
  3294                           ; Regs used in _display: [wreg-fsr1h+status,2+status,0+pclath+cstack]
  3295                           ;display@p_input_arr stored from wreg
  3296  0714  00F7               	movwf	display@p_input_arr
  3297  0715                     l1284:
  3298                           
  3299                           ;display.c: 19:     SPI2_Open(SPI2_DEFAULT);
  3300  0715  3000               	movlw	0
  3301  0716  3186  2658  3187   	fcall	_SPI2_Open
  3302  0719                     l1286:
  3303                           
  3304                           ;display.c: 21:     int i;;display.c: 23:     for(i = 0; i < 9; ++i){
  3305  0719  01F8               	clrf	display@i
  3306  071A  01F9               	clrf	display@i+1
  3307  071B  2F92               	goto	l1316
  3308  071C                     l1292:
  3309                           
  3310                           ;display.c: 28:                 p_input_arr[i] = 0b00111111;
  3311  071C  303F               	movlw	63
  3312  071D  00F4               	movwf	??_display
  3313  071E  0878               	movf	display@i,w
  3314  071F  0777               	addwf	display@p_input_arr,w
  3315  0720  00F5               	movwf	??_display+1
  3316  0721  0875               	movf	??_display+1,w
  3317  0722  0086               	movwf	6
  3318  0723  0187               	clrf	7
  3319  0724  0874               	movf	??_display,w
  3320  0725  0081               	movwf	1
  3321                           
  3322                           ;display.c: 29:                 break;
  3323  0726  2FC0               	goto	l1318
  3324  0727                     l1294:
  3325                           
  3326                           ;display.c: 32:                 p_input_arr[i] = 0b00000110;
  3327  0727  3006               	movlw	6
  3328  0728  00F4               	movwf	??_display
  3329  0729  0878               	movf	display@i,w
  3330  072A  0777               	addwf	display@p_input_arr,w
  3331  072B  00F5               	movwf	??_display+1
  3332  072C  0875               	movf	??_display+1,w
  3333  072D  0086               	movwf	6
  3334  072E  0187               	clrf	7
  3335  072F  0874               	movf	??_display,w
  3336  0730  0081               	movwf	1
  3337                           
  3338                           ;display.c: 33:                 break;
  3339  0731  2FC0               	goto	l1318
  3340  0732                     l1296:
  3341                           
  3342                           ;display.c: 36:                 p_input_arr[i] = 0b01011011;
  3343  0732  305B               	movlw	91
  3344  0733  00F4               	movwf	??_display
  3345  0734  0878               	movf	display@i,w
  3346  0735  0777               	addwf	display@p_input_arr,w
  3347  0736  00F5               	movwf	??_display+1
  3348  0737  0875               	movf	??_display+1,w
  3349  0738  0086               	movwf	6
  3350  0739  0187               	clrf	7
  3351  073A  0874               	movf	??_display,w
  3352  073B  0081               	movwf	1
  3353                           
  3354                           ;display.c: 37:                 break;
  3355  073C  2FC0               	goto	l1318
  3356  073D                     l1298:
  3357                           
  3358                           ;display.c: 40:                 p_input_arr[i] = 0b01001111;
  3359  073D  304F               	movlw	79
  3360  073E  00F4               	movwf	??_display
  3361  073F  0878               	movf	display@i,w
  3362  0740  0777               	addwf	display@p_input_arr,w
  3363  0741  00F5               	movwf	??_display+1
  3364  0742  0875               	movf	??_display+1,w
  3365  0743  0086               	movwf	6
  3366  0744  0187               	clrf	7
  3367  0745  0874               	movf	??_display,w
  3368  0746  0081               	movwf	1
  3369                           
  3370                           ;display.c: 41:                 break;
  3371  0747  2FC0               	goto	l1318
  3372  0748                     l1300:
  3373                           
  3374                           ;display.c: 44:                 p_input_arr[i] = 0b01100110;
  3375  0748  3066               	movlw	102
  3376  0749  00F4               	movwf	??_display
  3377  074A  0878               	movf	display@i,w
  3378  074B  0777               	addwf	display@p_input_arr,w
  3379  074C  00F5               	movwf	??_display+1
  3380  074D  0875               	movf	??_display+1,w
  3381  074E  0086               	movwf	6
  3382  074F  0187               	clrf	7
  3383  0750  0874               	movf	??_display,w
  3384  0751  0081               	movwf	1
  3385                           
  3386                           ;display.c: 45:                 break;
  3387  0752  2FC0               	goto	l1318
  3388  0753                     l1302:
  3389                           
  3390                           ;display.c: 48:                 p_input_arr[i] = 0b01101101;
  3391  0753  306D               	movlw	109
  3392  0754  00F4               	movwf	??_display
  3393  0755  0878               	movf	display@i,w
  3394  0756  0777               	addwf	display@p_input_arr,w
  3395  0757  00F5               	movwf	??_display+1
  3396  0758  0875               	movf	??_display+1,w
  3397  0759  0086               	movwf	6
  3398  075A  0187               	clrf	7
  3399  075B  0874               	movf	??_display,w
  3400  075C  0081               	movwf	1
  3401                           
  3402                           ;display.c: 49:                 break;
  3403  075D  2FC0               	goto	l1318
  3404  075E                     l1304:
  3405                           
  3406                           ;display.c: 52:                 p_input_arr[i] = 0b01111100;
  3407  075E  307C               	movlw	124
  3408  075F  00F4               	movwf	??_display
  3409  0760  0878               	movf	display@i,w
  3410  0761  0777               	addwf	display@p_input_arr,w
  3411  0762  00F5               	movwf	??_display+1
  3412  0763  0875               	movf	??_display+1,w
  3413  0764  0086               	movwf	6
  3414  0765  0187               	clrf	7
  3415  0766  0874               	movf	??_display,w
  3416  0767  0081               	movwf	1
  3417                           
  3418                           ;display.c: 53:                 break;
  3419  0768  2FC0               	goto	l1318
  3420  0769                     l1306:
  3421                           
  3422                           ;display.c: 56:                 p_input_arr[i] = 0b00000111;
  3423  0769  3007               	movlw	7
  3424  076A  00F4               	movwf	??_display
  3425  076B  0878               	movf	display@i,w
  3426  076C  0777               	addwf	display@p_input_arr,w
  3427  076D  00F5               	movwf	??_display+1
  3428  076E  0875               	movf	??_display+1,w
  3429  076F  0086               	movwf	6
  3430  0770  0187               	clrf	7
  3431  0771  0874               	movf	??_display,w
  3432  0772  0081               	movwf	1
  3433                           
  3434                           ;display.c: 57:                 break;
  3435  0773  2FC0               	goto	l1318
  3436  0774                     l1308:
  3437                           
  3438                           ;display.c: 60:                 p_input_arr[i] = 0b01111111;
  3439  0774  307F               	movlw	127
  3440  0775  00F4               	movwf	??_display
  3441  0776  0878               	movf	display@i,w
  3442  0777  0777               	addwf	display@p_input_arr,w
  3443  0778  00F5               	movwf	??_display+1
  3444  0779  0875               	movf	??_display+1,w
  3445  077A  0086               	movwf	6
  3446  077B  0187               	clrf	7
  3447  077C  0874               	movf	??_display,w
  3448  077D  0081               	movwf	1
  3449                           
  3450                           ;display.c: 61:                 break;
  3451  077E  2FC0               	goto	l1318
  3452  077F                     l1310:
  3453                           
  3454                           ;display.c: 64:                 p_input_arr[i] = 0b011100111;
  3455  077F  30E7               	movlw	231
  3456  0780  00F4               	movwf	??_display
  3457  0781  0878               	movf	display@i,w
  3458  0782  0777               	addwf	display@p_input_arr,w
  3459  0783  00F5               	movwf	??_display+1
  3460  0784  0875               	movf	??_display+1,w
  3461  0785  0086               	movwf	6
  3462  0786  0187               	clrf	7
  3463  0787  0874               	movf	??_display,w
  3464  0788  0081               	movwf	1
  3465                           
  3466                           ;display.c: 65:                 break;
  3467  0789  2FC0               	goto	l1318
  3468  078A                     l1312:
  3469                           
  3470                           ;display.c: 68:                     p_input_arr[i] = 0b00000000;
  3471  078A  0878               	movf	display@i,w
  3472  078B  0777               	addwf	display@p_input_arr,w
  3473  078C  00F4               	movwf	??_display
  3474  078D  0874               	movf	??_display,w
  3475  078E  0086               	movwf	6
  3476  078F  0187               	clrf	7
  3477  0790  0181               	clrf	1
  3478                           
  3479                           ;display.c: 69:                 break;
  3480  0791  2FC0               	goto	l1318
  3481  0792                     l1316:
  3482  0792  0878               	movf	display@i,w
  3483  0793  0777               	addwf	display@p_input_arr,w
  3484  0794  00F4               	movwf	??_display
  3485  0795  0874               	movf	??_display,w
  3486  0796  0086               	movwf	6
  3487  0797  0187               	clrf	7
  3488  0798  0801               	movf	1,w
  3489  0799  00F5               	movwf	??_display+1
  3490  079A  01F6               	clrf	??_display+2
  3491                           
  3492                           ; Switch on 2 bytes has been partitioned into a top level switch of size 1, and 1 sub-sw
      +                          itches
  3493                           ; Switch size 1, requested type "simple"
  3494                           ; Number of cases is 1, Range of values is 0 to 0
  3495                           ; switch strategies available:
  3496                           ; Name         Instructions Cycles
  3497                           ; simple_byte            4     3 (average)
  3498                           ; direct_byte            8     6 (fixed)
  3499                           ; jumptable            260     6 (fixed)
  3500                           ;	Chosen strategy is simple_byte
  3501  079B  0876               	movf	??_display+2,w
  3502  079C  3A00               	xorlw	0	; case 0
  3503  079D  1903               	skipnz
  3504  079E  2FA0               	goto	l1472
  3505  079F  2F8A               	goto	l1312
  3506  07A0                     l1472:
  3507                           
  3508                           ; Switch size 1, requested type "simple"
  3509                           ; Number of cases is 10, Range of values is 48 to 57
  3510                           ; switch strategies available:
  3511                           ; Name         Instructions Cycles
  3512                           ; direct_byte           29     9 (fixed)
  3513                           ; simple_byte           31    16 (average)
  3514                           ; jumptable            263     9 (fixed)
  3515                           ;	Chosen strategy is simple_byte
  3516  07A0  0875               	movf	??_display+1,w
  3517  07A1  3A30               	xorlw	48	; case 48
  3518  07A2  1903               	skipnz
  3519  07A3  2F1C               	goto	l1292
  3520  07A4  3A01               	xorlw	1	; case 49
  3521  07A5  1903               	skipnz
  3522  07A6  2F27               	goto	l1294
  3523  07A7  3A03               	xorlw	3	; case 50
  3524  07A8  1903               	skipnz
  3525  07A9  2F32               	goto	l1296
  3526  07AA  3A01               	xorlw	1	; case 51
  3527  07AB  1903               	skipnz
  3528  07AC  2F3D               	goto	l1298
  3529  07AD  3A07               	xorlw	7	; case 52
  3530  07AE  1903               	skipnz
  3531  07AF  2F48               	goto	l1300
  3532  07B0  3A01               	xorlw	1	; case 53
  3533  07B1  1903               	skipnz
  3534  07B2  2F53               	goto	l1302
  3535  07B3  3A03               	xorlw	3	; case 54
  3536  07B4  1903               	skipnz
  3537  07B5  2F5E               	goto	l1304
  3538  07B6  3A01               	xorlw	1	; case 55
  3539  07B7  1903               	skipnz
  3540  07B8  2F69               	goto	l1306
  3541  07B9  3A0F               	xorlw	15	; case 56
  3542  07BA  1903               	skipnz
  3543  07BB  2F74               	goto	l1308
  3544  07BC  3A01               	xorlw	1	; case 57
  3545  07BD  1903               	skipnz
  3546  07BE  2F7F               	goto	l1310
  3547  07BF  2F8A               	goto	l1312
  3548  07C0                     l1318:
  3549                           
  3550                           ;display.c: 72:         SPI2_ExchangeByte(p_input_arr[i]);
  3551  07C0  0878               	movf	display@i,w
  3552  07C1  0777               	addwf	display@p_input_arr,w
  3553  07C2  00F4               	movwf	??_display
  3554  07C3  0874               	movf	??_display,w
  3555  07C4  0086               	movwf	6
  3556  07C5  0187               	clrf	7
  3557  07C6  0801               	movf	1,w
  3558  07C7  3185  25A9  3187   	fcall	_SPI2_ExchangeByte
  3559  07CA                     l1320:
  3560                           
  3561                           ;display.c: 74:     }
  3562  07CA  3001               	movlw	1
  3563  07CB  07F8               	addwf	display@i,f
  3564  07CC  3000               	movlw	0
  3565  07CD  3DF9               	addwfc	display@i+1,f
  3566  07CE                     l1322:
  3567  07CE  0879               	movf	display@i+1,w
  3568  07CF  3A80               	xorlw	128
  3569  07D0  00F4               	movwf	??_display
  3570  07D1  3080               	movlw	128
  3571  07D2  0274               	subwf	??_display,w
  3572  07D3  1D03               	skipz
  3573  07D4  2FD7               	goto	u235
  3574  07D5  3009               	movlw	9
  3575  07D6  0278               	subwf	display@i,w
  3576  07D7                     u235:
  3577  07D7  1C03               	skipc
  3578  07D8  2FDA               	goto	u231
  3579  07D9  2FDB               	goto	u230
  3580  07DA                     u231:
  3581  07DA  2F92               	goto	l1316
  3582  07DB                     u230:
  3583  07DB                     l386:	
  3584                           ;display.c: 75:     do { LATDbits.LATD7 = 0; } while(0);
  3585                           
  3586  07DB  0140               	movlb	0	; select bank0
  3587  07DC  139B               	bcf	27,7	;volatile
  3588  07DD                     l1324:
  3589                           
  3590                           ;display.c: 77:     _delay((unsigned long)((.01)*(4000000/4000.0)));
  3591  07DD  3003               	movlw	3
  3592  07DE                     u337:
  3593  07DE  0B89               	decfsz	9,f
  3594  07DF  2FDE               	goto	u337
  3595  07E0  0000               	nop
  3596  07E1                     l1326:
  3597  07E1  0140               	movlb	0	; select bank0
  3598  07E2  179B               	bsf	27,7	;volatile
  3599  07E3                     l1328:
  3600                           
  3601                           ;display.c: 81:     SPI2_Close();
  3602  07E3  3185  256E  3187   	fcall	_SPI2_Close
  3603  07E6                     l390:
  3604  07E6  0008               	return
  3605  07E7                     __end_of_display:
  3606                           
  3607                           	psect	text3
  3608  0658                     __ptext3:	
  3609 ;; *************** function _SPI2_Open *****************
  3610 ;; Defined at:
  3611 ;;		line 38 in file "mcc_generated_files/spi2.c"
  3612 ;; Parameters:    Size  Location     Type
  3613 ;;  spi2UniqueCo    1    wreg     enum E355
  3614 ;; Auto vars:     Size  Location     Type
  3615 ;;  spi2UniqueCo    1    3[COMMON] enum E355
  3616 ;; Return value:  Size  Location     Type
  3617 ;;                  1    wreg      _Bool 
  3618 ;; Registers used:
  3619 ;;		wreg, fsr0l, fsr0h, status,2, status,0, pclath
  3620 ;; Tracked objects:
  3621 ;;		On entry : 0/0
  3622 ;;		On exit  : 0/0
  3623 ;;		Unchanged: 0/0
  3624 ;; Data sizes:     COMMON   BANK0   BANK1   BANK2   BANK3   BANK4   BANK5   BANK6   BANK7   BANK8   BANK9  BANK10  BANK1
      +1  BANK12  BANK13  BANK14  BANK15  BANK16  BANK17  BANK18  BANK19  BANK20  BANK21  BANK22  BANK23  BANK24  BANK25
  3625 ;;      Params:         0       0       0       0       0       0       0       0       0       0       0       0       
      +0       0       0       0       0       0       0       0       0       0       0       0       0       0       0
  3626 ;;      Locals:         1       0       0       0       0       0       0       0       0       0       0       0       
      +0       0       0       0       0       0       0       0       0       0       0       0       0       0       0
  3627 ;;      Temps:          3       0       0       0       0       0       0       0       0       0       0       0       
      +0       0       0       0       0       0       0       0       0       0       0       0       0       0       0
  3628 ;;      Totals:         4       0       0       0       0       0       0       0       0       0       0       0       
      +0       0       0       0       0       0       0       0       0       0       0       0       0       0       0
  3629 ;;Total ram usage:        4 bytes
  3630 ;; Hardware stack levels used: 1
  3631 ;; This function calls:
  3632 ;;		Nothing
  3633 ;; This function is called by:
  3634 ;;		_display
  3635 ;; This function uses a non-reentrant model
  3636 ;;
  3637                           
  3638                           
  3639                           ;psect for function _SPI2_Open
  3640  0658                     _SPI2_Open:
  3641                           
  3642                           ;incstack = 0
  3643                           ; Regs used in _SPI2_Open: [wreg-fsr0h+status,2+status,0+pclath]
  3644                           ;SPI2_Open@spi2UniqueConfiguration stored from wreg
  3645  0658  00F3               	movwf	SPI2_Open@spi2UniqueConfiguration
  3646  0659                     l1234:
  3647                           
  3648                           ;mcc_generated_files/spi2.c: 38: _Bool SPI2_Open(spi2_modes_t spi2UniqueConfiguration);m
      +                          cc_generated_files/spi2.c: 39: {;mcc_generated_files/spi2.c: 40:     if(!SSP2CON1bits.SS
      +                          PEN)
  3649  0659  0143               	movlb	3	; select bank3
  3650  065A  1A9A               	btfsc	26,5	;volatile
  3651  065B  2E5D               	goto	u191
  3652  065C  2E5E               	goto	u190
  3653  065D                     u191:
  3654  065D  2EA4               	goto	l258
  3655  065E                     u190:
  3656  065E                     l1236:
  3657                           
  3658                           ;mcc_generated_files/spi2.c: 41:     {;mcc_generated_files/spi2.c: 42:         SSP2STAT 
      +                          = spi2_configuration[spi2UniqueConfiguration].stat;
  3659  065E  0873               	movf	SPI2_Open@spi2UniqueConfiguration,w
  3660  065F  00F0               	movwf	??_SPI2_Open
  3661  0660  01F1               	clrf	??_SPI2_Open+1
  3662  0661  35F0               	lslf	??_SPI2_Open,f
  3663  0662  0DF1               	rlf	??_SPI2_Open+1,f
  3664  0663  35F0               	lslf	??_SPI2_Open,f
  3665  0664  0DF1               	rlf	??_SPI2_Open+1,f
  3666  0665  3001               	movlw	low ((_spi2_configuration+1)| (0+32768))
  3667  0666  0770               	addwf	??_SPI2_Open,w
  3668  0667  0084               	movwf	4
  3669  0668  3088               	movlw	high ((_spi2_configuration+1)| (0+32768))
  3670  0669  3D71               	addwfc	??_SPI2_Open+1,w
  3671  066A  0085               	movwf	5
  3672  066B  0800               	movf	0,w	;code access
  3673  066C  0099               	movwf	25	;volatile
  3674                           
  3675                           ;mcc_generated_files/spi2.c: 43:         SSP2CON1 = spi2_configuration[spi2UniqueConfigu
      +                          ration].con1;
  3676  066D  0873               	movf	SPI2_Open@spi2UniqueConfiguration,w
  3677  066E  00F0               	movwf	??_SPI2_Open
  3678  066F  01F1               	clrf	??_SPI2_Open+1
  3679  0670  35F0               	lslf	??_SPI2_Open,f
  3680  0671  0DF1               	rlf	??_SPI2_Open+1,f
  3681  0672  35F0               	lslf	??_SPI2_Open,f
  3682  0673  0DF1               	rlf	??_SPI2_Open+1,f
  3683  0674  3000               	movlw	low (_spi2_configuration| (0+32768))
  3684  0675  0770               	addwf	??_SPI2_Open,w
  3685  0676  0084               	movwf	4
  3686  0677  3088               	movlw	high (_spi2_configuration| (0+32768))
  3687  0678  3D71               	addwfc	??_SPI2_Open+1,w
  3688  0679  0085               	movwf	5
  3689  067A  0800               	movf	0,w	;code access
  3690  067B  009A               	movwf	26	;volatile
  3691  067C                     l1238:
  3692                           
  3693                           ;mcc_generated_files/spi2.c: 44:         SSP2CON2 = 0x00;
  3694  067C  019B               	clrf	27	;volatile
  3695  067D                     l1240:
  3696                           
  3697                           ;mcc_generated_files/spi2.c: 45:         SSP2ADD = spi2_configuration[spi2UniqueConfigur
      +                          ation].add;
  3698  067D  0873               	movf	SPI2_Open@spi2UniqueConfiguration,w
  3699  067E  00F0               	movwf	??_SPI2_Open
  3700  067F  01F1               	clrf	??_SPI2_Open+1
  3701  0680  35F0               	lslf	??_SPI2_Open,f
  3702  0681  0DF1               	rlf	??_SPI2_Open+1,f
  3703  0682  35F0               	lslf	??_SPI2_Open,f
  3704  0683  0DF1               	rlf	??_SPI2_Open+1,f
  3705  0684  3002               	movlw	low ((_spi2_configuration+2)| (0+32768))
  3706  0685  0770               	addwf	??_SPI2_Open,w
  3707  0686  0084               	movwf	4
  3708  0687  3088               	movlw	high ((_spi2_configuration+2)| (0+32768))
  3709  0688  3D71               	addwfc	??_SPI2_Open+1,w
  3710  0689  0085               	movwf	5
  3711  068A  0800               	movf	0,w	;code access
  3712  068B  0097               	movwf	23	;volatile
  3713  068C                     l1242:
  3714                           
  3715                           ;mcc_generated_files/spi2.c: 46:         TRISBbits.TRISB1 = spi2_configuration[spi2Uniqu
      +                          eConfiguration].operation;
  3716  068C  0873               	movf	SPI2_Open@spi2UniqueConfiguration,w
  3717  068D  00F0               	movwf	??_SPI2_Open
  3718  068E  01F1               	clrf	??_SPI2_Open+1
  3719  068F  35F0               	lslf	??_SPI2_Open,f
  3720  0690  0DF1               	rlf	??_SPI2_Open+1,f
  3721  0691  35F0               	lslf	??_SPI2_Open,f
  3722  0692  0DF1               	rlf	??_SPI2_Open+1,f
  3723  0693  3003               	movlw	low ((_spi2_configuration+3)| (0+32768))
  3724  0694  0770               	addwf	??_SPI2_Open,w
  3725  0695  0084               	movwf	4
  3726  0696  3088               	movlw	high ((_spi2_configuration+3)| (0+32768))
  3727  0697  3D71               	addwfc	??_SPI2_Open+1,w
  3728  0698  0085               	movwf	5
  3729  0699  0800               	movf	0,w	;code access
  3730  069A  00F2               	movwf	??_SPI2_Open+2
  3731  069B  0DF2               	rlf	??_SPI2_Open+2,f
  3732  069C  0140               	movlb	0	; select bank0
  3733  069D  0813               	movf	19,w	;volatile
  3734  069E  0672               	xorwf	??_SPI2_Open+2,w
  3735  069F  39FD               	andlw	-3
  3736  06A0  0672               	xorwf	??_SPI2_Open+2,w
  3737  06A1  0093               	movwf	19	;volatile
  3738  06A2                     l1244:
  3739                           
  3740                           ;mcc_generated_files/spi2.c: 47:         SSP2CON1bits.SSPEN = 1;
  3741  06A2  0143               	movlb	3	; select bank3
  3742  06A3  169A               	bsf	26,5	;volatile
  3743  06A4                     l258:
  3744  06A4  0008               	return
  3745  06A5                     __end_of_SPI2_Open:
  3746                           
  3747                           	psect	text4
  3748  05A9                     __ptext4:	
  3749 ;; *************** function _SPI2_ExchangeByte *****************
  3750 ;; Defined at:
  3751 ;;		line 58 in file "mcc_generated_files/spi2.c"
  3752 ;; Parameters:    Size  Location     Type
  3753 ;;  data            1    wreg     unsigned char 
  3754 ;; Auto vars:     Size  Location     Type
  3755 ;;  data            1    0[COMMON] unsigned char 
  3756 ;; Return value:  Size  Location     Type
  3757 ;;                  1    wreg      unsigned char 
  3758 ;; Registers used:
  3759 ;;		wreg
  3760 ;; Tracked objects:
  3761 ;;		On entry : 0/0
  3762 ;;		On exit  : 0/0
  3763 ;;		Unchanged: 0/0
  3764 ;; Data sizes:     COMMON   BANK0   BANK1   BANK2   BANK3   BANK4   BANK5   BANK6   BANK7   BANK8   BANK9  BANK10  BANK1
      +1  BANK12  BANK13  BANK14  BANK15  BANK16  BANK17  BANK18  BANK19  BANK20  BANK21  BANK22  BANK23  BANK24  BANK25
  3765 ;;      Params:         0       0       0       0       0       0       0       0       0       0       0       0       
      +0       0       0       0       0       0       0       0       0       0       0       0       0       0       0
  3766 ;;      Locals:         1       0       0       0       0       0       0       0       0       0       0       0       
      +0       0       0       0       0       0       0       0       0       0       0       0       0       0       0
  3767 ;;      Temps:          0       0       0       0       0       0       0       0       0       0       0       0       
      +0       0       0       0       0       0       0       0       0       0       0       0       0       0       0
  3768 ;;      Totals:         1       0       0       0       0       0       0       0       0       0       0       0       
      +0       0       0       0       0       0       0       0       0       0       0       0       0       0       0
  3769 ;;Total ram usage:        1 bytes
  3770 ;; Hardware stack levels used: 1
  3771 ;; This function calls:
  3772 ;;		Nothing
  3773 ;; This function is called by:
  3774 ;;		_display
  3775 ;;		_SPI2_WriteBlock
  3776 ;;		_SPI2_ReadBlock
  3777 ;; This function uses a non-reentrant model
  3778 ;;
  3779                           
  3780                           
  3781                           ;psect for function _SPI2_ExchangeByte
  3782  05A9                     _SPI2_ExchangeByte:
  3783                           
  3784                           ;incstack = 0
  3785                           ; Regs used in _SPI2_ExchangeByte: [wreg]
  3786                           ;SPI2_ExchangeByte@data stored from wreg
  3787  05A9  00F0               	movwf	SPI2_ExchangeByte@data
  3788  05AA                     l1250:
  3789                           
  3790                           ;mcc_generated_files/spi2.c: 58: uint8_t SPI2_ExchangeByte(uint8_t data);mcc_generated_f
      +                          iles/spi2.c: 59: {;mcc_generated_files/spi2.c: 60:     SSP2BUF = data;
  3791  05AA  0870               	movf	SPI2_ExchangeByte@data,w
  3792  05AB  0143               	movlb	3	; select bank3
  3793  05AC  0096               	movwf	22	;volatile
  3794  05AD                     l264:	
  3795                           ;mcc_generated_files/spi2.c: 61:     while(!PIR3bits.SSP2IF);
  3796                           
  3797  05AD  014E               	movlb	14	; select bank14
  3798  05AE  1D0F               	btfss	15,2	;volatile
  3799  05AF  2DB1               	goto	u201
  3800  05B0  2DB2               	goto	u200
  3801  05B1                     u201:
  3802  05B1  2DAD               	goto	l264
  3803  05B2                     u200:
  3804  05B2                     l266:
  3805                           
  3806                           ;mcc_generated_files/spi2.c: 62:     PIR3bits.SSP2IF = 0;
  3807  05B2  110F               	bcf	15,2	;volatile
  3808  05B3                     l1252:
  3809                           
  3810                           ;mcc_generated_files/spi2.c: 63:     return SSP2BUF;
  3811  05B3  0143               	movlb	3	; select bank3
  3812  05B4  0816               	movf	22,w	;volatile
  3813  05B5                     l267:
  3814  05B5  0008               	return
  3815  05B6                     __end_of_SPI2_ExchangeByte:
  3816                           
  3817                           	psect	text5
  3818  056E                     __ptext5:	
  3819 ;; *************** function _SPI2_Close *****************
  3820 ;; Defined at:
  3821 ;;		line 53 in file "mcc_generated_files/spi2.c"
  3822 ;; Parameters:    Size  Location     Type
  3823 ;;		None
  3824 ;; Auto vars:     Size  Location     Type
  3825 ;;		None
  3826 ;; Return value:  Size  Location     Type
  3827 ;;                  1    wreg      void 
  3828 ;; Registers used:
  3829 ;;		None
  3830 ;; Tracked objects:
  3831 ;;		On entry : 0/0
  3832 ;;		On exit  : 0/0
  3833 ;;		Unchanged: 0/0
  3834 ;; Data sizes:     COMMON   BANK0   BANK1   BANK2   BANK3   BANK4   BANK5   BANK6   BANK7   BANK8   BANK9  BANK10  BANK1
      +1  BANK12  BANK13  BANK14  BANK15  BANK16  BANK17  BANK18  BANK19  BANK20  BANK21  BANK22  BANK23  BANK24  BANK25
  3835 ;;      Params:         0       0       0       0       0       0       0       0       0       0       0       0       
      +0       0       0       0       0       0       0       0       0       0       0       0       0       0       0
  3836 ;;      Locals:         0       0       0       0       0       0       0       0       0       0       0       0       
      +0       0       0       0       0       0       0       0       0       0       0       0       0       0       0
  3837 ;;      Temps:          0       0       0       0       0       0       0       0       0       0       0       0       
      +0       0       0       0       0       0       0       0       0       0       0       0       0       0       0
  3838 ;;      Totals:         0       0       0       0       0       0       0       0       0       0       0       0       
      +0       0       0       0       0       0       0       0       0       0       0       0       0       0       0
  3839 ;;Total ram usage:        0 bytes
  3840 ;; Hardware stack levels used: 1
  3841 ;; This function calls:
  3842 ;;		Nothing
  3843 ;; This function is called by:
  3844 ;;		_display
  3845 ;; This function uses a non-reentrant model
  3846 ;;
  3847                           
  3848                           
  3849                           ;psect for function _SPI2_Close
  3850  056E                     _SPI2_Close:
  3851  056E                     l1248:	
  3852                           ;incstack = 0
  3853                           ; Regs used in _SPI2_Close: []
  3854                           
  3855                           
  3856                           ;mcc_generated_files/spi2.c: 55:     SSP2CON1bits.SSPEN = 0;
  3857  056E  0143               	movlb	3	; select bank3
  3858  056F  129A               	bcf	26,5	;volatile
  3859  0570                     l261:
  3860  0570  0008               	return
  3861  0571                     __end_of_SPI2_Close:
  3862                           
  3863                           	psect	text6
  3864  0571                     __ptext6:	
  3865 ;; *************** function _EUSART1_is_rx_ready *****************
  3866 ;; Defined at:
  3867 ;;		line 60 in file "mcc_generated_files/eusart1.c"
  3868 ;; Parameters:    Size  Location     Type
  3869 ;;		None
  3870 ;; Auto vars:     Size  Location     Type
  3871 ;;		None
  3872 ;; Return value:  Size  Location     Type
  3873 ;;                  1    wreg      _Bool 
  3874 ;; Registers used:
  3875 ;;		wreg, status,2, status,0
  3876 ;; Tracked objects:
  3877 ;;		On entry : 0/0
  3878 ;;		On exit  : 0/0
  3879 ;;		Unchanged: 0/0
  3880 ;; Data sizes:     COMMON   BANK0   BANK1   BANK2   BANK3   BANK4   BANK5   BANK6   BANK7   BANK8   BANK9  BANK10  BANK1
      +1  BANK12  BANK13  BANK14  BANK15  BANK16  BANK17  BANK18  BANK19  BANK20  BANK21  BANK22  BANK23  BANK24  BANK25
  3881 ;;      Params:         0       0       0       0       0       0       0       0       0       0       0       0       
      +0       0       0       0       0       0       0       0       0       0       0       0       0       0       0
  3882 ;;      Locals:         0       0       0       0       0       0       0       0       0       0       0       0       
      +0       0       0       0       0       0       0       0       0       0       0       0       0       0       0
  3883 ;;      Temps:          0       0       0       0       0       0       0       0       0       0       0       0       
      +0       0       0       0       0       0       0       0       0       0       0       0       0       0       0
  3884 ;;      Totals:         0       0       0       0       0       0       0       0       0       0       0       0       
      +0       0       0       0       0       0       0       0       0       0       0       0       0       0       0
  3885 ;;Total ram usage:        0 bytes
  3886 ;; Hardware stack levels used: 1
  3887 ;; This function calls:
  3888 ;;		Nothing
  3889 ;; This function is called by:
  3890 ;;		_UART1_Command_INT
  3891 ;; This function uses a non-reentrant model
  3892 ;;
  3893                           
  3894                           
  3895                           ;psect for function _EUSART1_is_rx_ready
  3896  0571                     _EUSART1_is_rx_ready:
  3897  0571                     l1268:	
  3898                           ;incstack = 0
  3899                           ; Regs used in _EUSART1_is_rx_ready: [wreg+status,2+status,0]
  3900                           
  3901                           
  3902                           ;mcc_generated_files/eusart1.c: 62:     return (_Bool)(PIR3bits.RC1IF);
  3903  0571  014E               	movlb	14	; select bank14
  3904  0572  0E0F               	swapf	15,w	;volatile
  3905  0573  0C89               	rrf	9,f
  3906  0574  3901               	andlw	1
  3907  0575                     l182:
  3908  0575  0008               	return
  3909  0576                     __end_of_EUSART1_is_rx_ready:
  3910                           
  3911                           	psect	text7
  3912  05B6                     __ptext7:	
  3913 ;; *************** function _EUSART1_Read *****************
  3914 ;; Defined at:
  3915 ;;		line 74 in file "mcc_generated_files/eusart1.c"
  3916 ;; Parameters:    Size  Location     Type
  3917 ;;		None
  3918 ;; Auto vars:     Size  Location     Type
  3919 ;;		None
  3920 ;; Return value:  Size  Location     Type
  3921 ;;                  1    wreg      unsigned char 
  3922 ;; Registers used:
  3923 ;;		wreg, status,2
  3924 ;; Tracked objects:
  3925 ;;		On entry : 0/0
  3926 ;;		On exit  : 0/0
  3927 ;;		Unchanged: 0/0
  3928 ;; Data sizes:     COMMON   BANK0   BANK1   BANK2   BANK3   BANK4   BANK5   BANK6   BANK7   BANK8   BANK9  BANK10  BANK1
      +1  BANK12  BANK13  BANK14  BANK15  BANK16  BANK17  BANK18  BANK19  BANK20  BANK21  BANK22  BANK23  BANK24  BANK25
  3929 ;;      Params:         0       0       0       0       0       0       0       0       0       0       0       0       
      +0       0       0       0       0       0       0       0       0       0       0       0       0       0       0
  3930 ;;      Locals:         0       0       0       0       0       0       0       0       0       0       0       0       
      +0       0       0       0       0       0       0       0       0       0       0       0       0       0       0
  3931 ;;      Temps:          0       0       0       0       0       0       0       0       0       0       0       0       
      +0       0       0       0       0       0       0       0       0       0       0       0       0       0       0
  3932 ;;      Totals:         0       0       0       0       0       0       0       0       0       0       0       0       
      +0       0       0       0       0       0       0       0       0       0       0       0       0       0       0
  3933 ;;Total ram usage:        0 bytes
  3934 ;; Hardware stack levels used: 1
  3935 ;; This function calls:
  3936 ;;		Nothing
  3937 ;; This function is called by:
  3938 ;;		_UART1_Command_INT
  3939 ;;		_getch
  3940 ;; This function uses a non-reentrant model
  3941 ;;
  3942                           
  3943                           
  3944                           ;psect for function _EUSART1_Read
  3945  05B6                     _EUSART1_Read:
  3946  05B6                     l1272:	
  3947                           ;incstack = 0
  3948                           ; Regs used in _EUSART1_Read: [wreg+status,2]
  3949                           
  3950  05B6                     l191:	
  3951                           ;mcc_generated_files/eusart1.c: 77:     {;mcc_generated_files/eusart1.c: 78:     }
  3952                           
  3953                           
  3954                           ;mcc_generated_files/eusart1.c: 76:     while(!PIR3bits.RC1IF)
  3955  05B6  014E               	movlb	14	; select bank14
  3956  05B7  1E8F               	btfss	15,5	;volatile
  3957  05B8  2DBA               	goto	u211
  3958  05B9  2DBB               	goto	u210
  3959  05BA                     u211:
  3960  05BA  2DB6               	goto	l191
  3961  05BB                     u210:
  3962  05BB                     l1274:
  3963                           
  3964                           ;mcc_generated_files/eusart1.c: 80:     eusart1RxLastError.status = 0;
  3965  05BB  01FC               	clrf	_eusart1RxLastError	;volatile
  3966  05BC                     l1276:
  3967                           
  3968                           ;mcc_generated_files/eusart1.c: 82:     if(1 == RC1STAbits.OERR)
  3969  05BC  0142               	movlb	2	; select bank2
  3970  05BD  1C9D               	btfss	29,1	;volatile
  3971  05BE  2DC0               	goto	u221
  3972  05BF  2DC1               	goto	u220
  3973  05C0                     u221:
  3974  05C0  2DC3               	goto	l1280
  3975  05C1                     u220:
  3976  05C1                     l1278:
  3977                           
  3978                           ;mcc_generated_files/eusart1.c: 83:     {;mcc_generated_files/eusart1.c: 86:         RC1
      +                          STAbits.CREN = 0;
  3979  05C1  121D               	bcf	29,4	;volatile
  3980                           
  3981                           ;mcc_generated_files/eusart1.c: 87:         RC1STAbits.CREN = 1;
  3982  05C2  161D               	bsf	29,4	;volatile
  3983  05C3                     l1280:
  3984                           
  3985                           ;mcc_generated_files/eusart1.c: 90:     return RC1REG;
  3986  05C3  0819               	movf	25,w	;volatile
  3987  05C4                     l195:
  3988  05C4  0008               	return
  3989  05C5                     __end_of_EUSART1_Read:
  3990                           
  3991                           	psect	text8
  3992  05C5                     __ptext8:	
  3993 ;; *************** function _SYSTEM_Initialize *****************
  3994 ;; Defined at:
  3995 ;;		line 9 in file "mcc_generated_files/mcc.c"
  3996 ;; Parameters:    Size  Location     Type
  3997 ;;		None
  3998 ;; Auto vars:     Size  Location     Type
  3999 ;;		None
  4000 ;; Return value:  Size  Location     Type
  4001 ;;                  1    wreg      void 
  4002 ;; Registers used:
  4003 ;;		wreg, status,2, status,0, pclath, cstack
  4004 ;; Tracked objects:
  4005 ;;		On entry : 0/0
  4006 ;;		On exit  : 0/0
  4007 ;;		Unchanged: 0/0
  4008 ;; Data sizes:     COMMON   BANK0   BANK1   BANK2   BANK3   BANK4   BANK5   BANK6   BANK7   BANK8   BANK9  BANK10  BANK1
      +1  BANK12  BANK13  BANK14  BANK15  BANK16  BANK17  BANK18  BANK19  BANK20  BANK21  BANK22  BANK23  BANK24  BANK25
  4009 ;;      Params:         0       0       0       0       0       0       0       0       0       0       0       0       
      +0       0       0       0       0       0       0       0       0       0       0       0       0       0       0
  4010 ;;      Locals:         0       0       0       0       0       0       0       0       0       0       0       0       
      +0       0       0       0       0       0       0       0       0       0       0       0       0       0       0
  4011 ;;      Temps:          0       0       0       0       0       0       0       0       0       0       0       0       
      +0       0       0       0       0       0       0       0       0       0       0       0       0       0       0
  4012 ;;      Totals:         0       0       0       0       0       0       0       0       0       0       0       0       
      +0       0       0       0       0       0       0       0       0       0       0       0       0       0       0
  4013 ;;Total ram usage:        0 bytes
  4014 ;; Hardware stack levels used: 1
  4015 ;; Hardware stack levels required when called: 2
  4016 ;; This function calls:
  4017 ;;		_EUSART1_Initialize
  4018 ;;		_OSCILLATOR_Initialize
  4019 ;;		_PIN_MANAGER_Initialize
  4020 ;;		_PMD_Initialize
  4021 ;;		_SPI2_Initialize
  4022 ;; This function is called by:
  4023 ;;		_main
  4024 ;; This function uses a non-reentrant model
  4025 ;;
  4026                           
  4027                           
  4028                           ;psect for function _SYSTEM_Initialize
  4029  05C5                     _SYSTEM_Initialize:
  4030  05C5                     l1334:	
  4031                           ;incstack = 0
  4032                           ; Regs used in _SYSTEM_Initialize: [wreg+status,2+status,0+pclath+cstack]
  4033                           
  4034                           
  4035                           ;mcc_generated_files/mcc.c: 11:     PMD_Initialize();
  4036  05C5  3185  258E  3185   	fcall	_PMD_Initialize
  4037  05C8                     l1336:
  4038                           
  4039                           ;mcc_generated_files/mcc.c: 12:     SPI2_Initialize();
  4040  05C8  3185  25D5  3185   	fcall	_SPI2_Initialize
  4041  05CB                     l1338:
  4042                           
  4043                           ;mcc_generated_files/mcc.c: 13:     PIN_MANAGER_Initialize();
  4044  05CB  3186  260C  3185   	fcall	_PIN_MANAGER_Initialize
  4045  05CE                     l1340:
  4046                           
  4047                           ;mcc_generated_files/mcc.c: 14:     OSCILLATOR_Initialize();
  4048  05CE  3185  259F  3185   	fcall	_OSCILLATOR_Initialize
  4049  05D1                     l1342:
  4050                           
  4051                           ;mcc_generated_files/mcc.c: 15:     EUSART1_Initialize();
  4052  05D1  3185  25EB  3185   	fcall	_EUSART1_Initialize
  4053  05D4                     l125:
  4054  05D4  0008               	return
  4055  05D5                     __end_of_SYSTEM_Initialize:
  4056                           
  4057                           	psect	text9
  4058  05D5                     __ptext9:	
  4059 ;; *************** function _SPI2_Initialize *****************
  4060 ;; Defined at:
  4061 ;;		line 23 in file "mcc_generated_files/spi2.c"
  4062 ;; Parameters:    Size  Location     Type
  4063 ;;		None
  4064 ;; Auto vars:     Size  Location     Type
  4065 ;;		None
  4066 ;; Return value:  Size  Location     Type
  4067 ;;                  1    wreg      void 
  4068 ;; Registers used:
  4069 ;;		wreg
  4070 ;; Tracked objects:
  4071 ;;		On entry : 0/0
  4072 ;;		On exit  : 0/0
  4073 ;;		Unchanged: 0/0
  4074 ;; Data sizes:     COMMON   BANK0   BANK1   BANK2   BANK3   BANK4   BANK5   BANK6   BANK7   BANK8   BANK9  BANK10  BANK1
      +1  BANK12  BANK13  BANK14  BANK15  BANK16  BANK17  BANK18  BANK19  BANK20  BANK21  BANK22  BANK23  BANK24  BANK25
  4075 ;;      Params:         0       0       0       0       0       0       0       0       0       0       0       0       
      +0       0       0       0       0       0       0       0       0       0       0       0       0       0       0
  4076 ;;      Locals:         0       0       0       0       0       0       0       0       0       0       0       0       
      +0       0       0       0       0       0       0       0       0       0       0       0       0       0       0
  4077 ;;      Temps:          0       0       0       0       0       0       0       0       0       0       0       0       
      +0       0       0       0       0       0       0       0       0       0       0       0       0       0       0
  4078 ;;      Totals:         0       0       0       0       0       0       0       0       0       0       0       0       
      +0       0       0       0       0       0       0       0       0       0       0       0       0       0       0
  4079 ;;Total ram usage:        0 bytes
  4080 ;; Hardware stack levels used: 1
  4081 ;; This function calls:
  4082 ;;		Nothing
  4083 ;; This function is called by:
  4084 ;;		_SYSTEM_Initialize
  4085 ;; This function uses a non-reentrant model
  4086 ;;
  4087                           
  4088                           
  4089                           ;psect for function _SPI2_Initialize
  4090  05D5                     _SPI2_Initialize:
  4091  05D5                     l972:	
  4092                           ;incstack = 0
  4093                           ; Regs used in _SPI2_Initialize: [wreg]
  4094                           
  4095                           
  4096                           ;mcc_generated_files/spi2.c: 26:     SSP2CLKPPS = 9;
  4097  05D5  3009               	movlw	9
  4098  05D6  017D               	movlb	61	; select bank61
  4099  05D7  00C8               	movwf	72	;volatile
  4100                           
  4101                           ;mcc_generated_files/spi2.c: 27:     SSP2DATPPS = 8;
  4102  05D8  3008               	movlw	8
  4103  05D9  00C9               	movwf	73	;volatile
  4104                           
  4105                           ;mcc_generated_files/spi2.c: 28:     RB1PPS = 23;
  4106  05DA  3017               	movlw	23
  4107  05DB  017E               	movlb	62	; select bank62
  4108  05DC  0099               	movwf	25	;volatile
  4109                           
  4110                           ;mcc_generated_files/spi2.c: 29:     RB5PPS = 24;
  4111  05DD  3018               	movlw	24
  4112  05DE  009D               	movwf	29	;volatile
  4113                           
  4114                           ;mcc_generated_files/spi2.c: 31:     SSP2STAT = 0x40;
  4115  05DF  3040               	movlw	64
  4116  05E0  0143               	movlb	3	; select bank3
  4117  05E1  0099               	movwf	25	;volatile
  4118                           
  4119                           ;mcc_generated_files/spi2.c: 32:     SSP2CON1 = 0x02;
  4120  05E2  3002               	movlw	2
  4121  05E3  009A               	movwf	26	;volatile
  4122                           
  4123                           ;mcc_generated_files/spi2.c: 33:     SSP2ADD = 0x01;
  4124  05E4  3001               	movlw	1
  4125  05E5  0097               	movwf	23	;volatile
  4126  05E6                     l974:
  4127                           
  4128                           ;mcc_generated_files/spi2.c: 34:     TRISBbits.TRISB1 = 0;
  4129  05E6  0140               	movlb	0	; select bank0
  4130  05E7  1093               	bcf	19,1	;volatile
  4131  05E8                     l976:
  4132                           
  4133                           ;mcc_generated_files/spi2.c: 35:     SSP2CON1bits.SSPEN = 0;
  4134  05E8  0143               	movlb	3	; select bank3
  4135  05E9  129A               	bcf	26,5	;volatile
  4136  05EA                     l254:
  4137  05EA  0008               	return
  4138  05EB                     __end_of_SPI2_Initialize:
  4139                           
  4140                           	psect	text10
  4141  058E                     __ptext10:	
  4142 ;; *************** function _PMD_Initialize *****************
  4143 ;; Defined at:
  4144 ;;		line 34 in file "mcc_generated_files/mcc.c"
  4145 ;; Parameters:    Size  Location     Type
  4146 ;;		None
  4147 ;; Auto vars:     Size  Location     Type
  4148 ;;		None
  4149 ;; Return value:  Size  Location     Type
  4150 ;;                  1    wreg      void 
  4151 ;; Registers used:
  4152 ;;		status,2
  4153 ;; Tracked objects:
  4154 ;;		On entry : 0/0
  4155 ;;		On exit  : 0/0
  4156 ;;		Unchanged: 0/0
  4157 ;; Data sizes:     COMMON   BANK0   BANK1   BANK2   BANK3   BANK4   BANK5   BANK6   BANK7   BANK8   BANK9  BANK10  BANK1
      +1  BANK12  BANK13  BANK14  BANK15  BANK16  BANK17  BANK18  BANK19  BANK20  BANK21  BANK22  BANK23  BANK24  BANK25
  4158 ;;      Params:         0       0       0       0       0       0       0       0       0       0       0       0       
      +0       0       0       0       0       0       0       0       0       0       0       0       0       0       0
  4159 ;;      Locals:         0       0       0       0       0       0       0       0       0       0       0       0       
      +0       0       0       0       0       0       0       0       0       0       0       0       0       0       0
  4160 ;;      Temps:          0       0       0       0       0       0       0       0       0       0       0       0       
      +0       0       0       0       0       0       0       0       0       0       0       0       0       0       0
  4161 ;;      Totals:         0       0       0       0       0       0       0       0       0       0       0       0       
      +0       0       0       0       0       0       0       0       0       0       0       0       0       0       0
  4162 ;;Total ram usage:        0 bytes
  4163 ;; Hardware stack levels used: 1
  4164 ;; This function calls:
  4165 ;;		Nothing
  4166 ;; This function is called by:
  4167 ;;		_SYSTEM_Initialize
  4168 ;; This function uses a non-reentrant model
  4169 ;;
  4170                           
  4171                           
  4172                           ;psect for function _PMD_Initialize
  4173  058E                     _PMD_Initialize:
  4174  058E                     l970:	
  4175                           ;incstack = 0
  4176                           ; Regs used in _PMD_Initialize: [status,2]
  4177                           
  4178                           
  4179                           ;mcc_generated_files/mcc.c: 37:     PMD0 = 0x00;
  4180  058E  014F               	movlb	15	; select bank15
  4181  058F  0196               	clrf	22	;volatile
  4182                           
  4183                           ;mcc_generated_files/mcc.c: 39:     PMD1 = 0x00;
  4184  0590  0197               	clrf	23	;volatile
  4185                           
  4186                           ;mcc_generated_files/mcc.c: 41:     PMD2 = 0x00;
  4187  0591  0198               	clrf	24	;volatile
  4188                           
  4189                           ;mcc_generated_files/mcc.c: 43:     PMD3 = 0x00;
  4190  0592  0199               	clrf	25	;volatile
  4191                           
  4192                           ;mcc_generated_files/mcc.c: 45:     PMD4 = 0x00;
  4193  0593  019A               	clrf	26	;volatile
  4194                           
  4195                           ;mcc_generated_files/mcc.c: 47:     PMD5 = 0x00;
  4196  0594  019B               	clrf	27	;volatile
  4197  0595                     l131:
  4198  0595  0008               	return
  4199  0596                     __end_of_PMD_Initialize:
  4200                           
  4201                           	psect	text11
  4202  060C                     __ptext11:	
  4203 ;; *************** function _PIN_MANAGER_Initialize *****************
  4204 ;; Defined at:
  4205 ;;		line 10 in file "mcc_generated_files/pin_manager.c"
  4206 ;; Parameters:    Size  Location     Type
  4207 ;;		None
  4208 ;; Auto vars:     Size  Location     Type
  4209 ;;		None
  4210 ;; Return value:  Size  Location     Type
  4211 ;;                  1    wreg      void 
  4212 ;; Registers used:
  4213 ;;		wreg, status,2
  4214 ;; Tracked objects:
  4215 ;;		On entry : 0/0
  4216 ;;		On exit  : 0/0
  4217 ;;		Unchanged: 0/0
  4218 ;; Data sizes:     COMMON   BANK0   BANK1   BANK2   BANK3   BANK4   BANK5   BANK6   BANK7   BANK8   BANK9  BANK10  BANK1
      +1  BANK12  BANK13  BANK14  BANK15  BANK16  BANK17  BANK18  BANK19  BANK20  BANK21  BANK22  BANK23  BANK24  BANK25
  4219 ;;      Params:         0       0       0       0       0       0       0       0       0       0       0       0       
      +0       0       0       0       0       0       0       0       0       0       0       0       0       0       0
  4220 ;;      Locals:         0       0       0       0       0       0       0       0       0       0       0       0       
      +0       0       0       0       0       0       0       0       0       0       0       0       0       0       0
  4221 ;;      Temps:          0       0       0       0       0       0       0       0       0       0       0       0       
      +0       0       0       0       0       0       0       0       0       0       0       0       0       0       0
  4222 ;;      Totals:         0       0       0       0       0       0       0       0       0       0       0       0       
      +0       0       0       0       0       0       0       0       0       0       0       0       0       0       0
  4223 ;;Total ram usage:        0 bytes
  4224 ;; Hardware stack levels used: 1
  4225 ;; This function calls:
  4226 ;;		Nothing
  4227 ;; This function is called by:
  4228 ;;		_SYSTEM_Initialize
  4229 ;; This function uses a non-reentrant model
  4230 ;;
  4231                           
  4232                           
  4233                           ;psect for function _PIN_MANAGER_Initialize
  4234  060C                     _PIN_MANAGER_Initialize:
  4235  060C                     l944:	
  4236                           ;incstack = 0
  4237                           ; Regs used in _PIN_MANAGER_Initialize: [wreg+status,2]
  4238                           
  4239                           
  4240                           ;mcc_generated_files/pin_manager.c: 15:     LATE = 0x01;
  4241  060C  3001               	movlw	1
  4242  060D  0140               	movlb	0	; select bank0
  4243  060E  009C               	movwf	28	;volatile
  4244                           
  4245                           ;mcc_generated_files/pin_manager.c: 16:     LATD = 0x80;
  4246  060F  3080               	movlw	128
  4247  0610  009B               	movwf	27	;volatile
  4248  0611                     l946:
  4249                           
  4250                           ;mcc_generated_files/pin_manager.c: 17:     LATA = 0x00;
  4251  0611  0198               	clrf	24	;volatile
  4252  0612                     l948:
  4253                           
  4254                           ;mcc_generated_files/pin_manager.c: 18:     LATB = 0x00;
  4255  0612  0199               	clrf	25	;volatile
  4256                           
  4257                           ;mcc_generated_files/pin_manager.c: 19:     LATC = 0x0A;
  4258  0613  300A               	movlw	10
  4259  0614  009A               	movwf	26	;volatile
  4260                           
  4261                           ;mcc_generated_files/pin_manager.c: 24:     TRISE = 0x0E;
  4262  0615  300E               	movlw	14
  4263  0616  0096               	movwf	22	;volatile
  4264                           
  4265                           ;mcc_generated_files/pin_manager.c: 25:     TRISA = 0xFF;
  4266  0617  30FF               	movlw	255
  4267  0618  0092               	movwf	18	;volatile
  4268                           
  4269                           ;mcc_generated_files/pin_manager.c: 26:     TRISB = 0xF5;
  4270  0619  30F5               	movlw	245
  4271  061A  0093               	movwf	19	;volatile
  4272                           
  4273                           ;mcc_generated_files/pin_manager.c: 27:     TRISC = 0xAF;
  4274  061B  30AF               	movlw	175
  4275  061C  0094               	movwf	20	;volatile
  4276                           
  4277                           ;mcc_generated_files/pin_manager.c: 28:     TRISD = 0x7F;
  4278  061D  307F               	movlw	127
  4279  061E  0095               	movwf	21	;volatile
  4280                           
  4281                           ;mcc_generated_files/pin_manager.c: 33:     ANSELD = 0xFF;
  4282  061F  30FF               	movlw	255
  4283  0620  017E               	movlb	62	; select bank62
  4284  0621  00D9               	movwf	89	;volatile
  4285                           
  4286                           ;mcc_generated_files/pin_manager.c: 34:     ANSELC = 0x75;
  4287  0622  3075               	movlw	117
  4288  0623  00CE               	movwf	78	;volatile
  4289                           
  4290                           ;mcc_generated_files/pin_manager.c: 35:     ANSELB = 0xFC;
  4291  0624  30FC               	movlw	252
  4292  0625  00C3               	movwf	67	;volatile
  4293                           
  4294                           ;mcc_generated_files/pin_manager.c: 36:     ANSELE = 0x06;
  4295  0626  3006               	movlw	6
  4296  0627  00E4               	movwf	100	;volatile
  4297                           
  4298                           ;mcc_generated_files/pin_manager.c: 37:     ANSELA = 0xFF;
  4299  0628  30FF               	movlw	255
  4300  0629  00B8               	movwf	56	;volatile
  4301  062A                     l950:
  4302                           
  4303                           ;mcc_generated_files/pin_manager.c: 42:     WPUD = 0x00;
  4304  062A  01DA               	clrf	90	;volatile
  4305  062B                     l952:
  4306                           
  4307                           ;mcc_generated_files/pin_manager.c: 43:     WPUE = 0x00;
  4308  062B  01E5               	clrf	101	;volatile
  4309  062C                     l954:
  4310                           
  4311                           ;mcc_generated_files/pin_manager.c: 44:     WPUB = 0x00;
  4312  062C  01C4               	clrf	68	;volatile
  4313  062D                     l956:
  4314                           
  4315                           ;mcc_generated_files/pin_manager.c: 45:     WPUA = 0x00;
  4316  062D  01B9               	clrf	57	;volatile
  4317  062E                     l958:
  4318                           
  4319                           ;mcc_generated_files/pin_manager.c: 46:     WPUC = 0x00;
  4320  062E  01CF               	clrf	79	;volatile
  4321  062F                     l960:
  4322                           
  4323                           ;mcc_generated_files/pin_manager.c: 51:     ODCONE = 0x00;
  4324  062F  01E6               	clrf	102	;volatile
  4325  0630                     l962:
  4326                           
  4327                           ;mcc_generated_files/pin_manager.c: 52:     ODCONA = 0x00;
  4328  0630  01BA               	clrf	58	;volatile
  4329  0631                     l964:
  4330                           
  4331                           ;mcc_generated_files/pin_manager.c: 53:     ODCONB = 0x00;
  4332  0631  01C5               	clrf	69	;volatile
  4333  0632                     l966:
  4334                           
  4335                           ;mcc_generated_files/pin_manager.c: 54:     ODCONC = 0x00;
  4336  0632  01D0               	clrf	80	;volatile
  4337  0633                     l968:
  4338                           
  4339                           ;mcc_generated_files/pin_manager.c: 55:     ODCOND = 0x00;
  4340  0633  01DB               	clrf	91	;volatile
  4341                           
  4342                           ;mcc_generated_files/pin_manager.c: 60:     SLRCONA = 0xFF;
  4343  0634  30FF               	movlw	255
  4344  0635  00BB               	movwf	59	;volatile
  4345                           
  4346                           ;mcc_generated_files/pin_manager.c: 61:     SLRCONB = 0xFF;
  4347  0636  30FF               	movlw	255
  4348  0637  00C6               	movwf	70	;volatile
  4349                           
  4350                           ;mcc_generated_files/pin_manager.c: 62:     SLRCONC = 0xFF;
  4351  0638  30FF               	movlw	255
  4352  0639  00D1               	movwf	81	;volatile
  4353                           
  4354                           ;mcc_generated_files/pin_manager.c: 63:     SLRCOND = 0xFF;
  4355  063A  30FF               	movlw	255
  4356  063B  00DC               	movwf	92	;volatile
  4357                           
  4358                           ;mcc_generated_files/pin_manager.c: 64:     SLRCONE = 0x07;
  4359  063C  3007               	movlw	7
  4360  063D  00E7               	movwf	103	;volatile
  4361                           
  4362                           ;mcc_generated_files/pin_manager.c: 69:     INLVLA = 0xFF;
  4363  063E  30FF               	movlw	255
  4364  063F  00BC               	movwf	60	;volatile
  4365                           
  4366                           ;mcc_generated_files/pin_manager.c: 70:     INLVLB = 0xFF;
  4367  0640  30FF               	movlw	255
  4368  0641  00C7               	movwf	71	;volatile
  4369                           
  4370                           ;mcc_generated_files/pin_manager.c: 71:     INLVLC = 0xFF;
  4371  0642  30FF               	movlw	255
  4372  0643  00D2               	movwf	82	;volatile
  4373                           
  4374                           ;mcc_generated_files/pin_manager.c: 72:     INLVLD = 0xFF;
  4375  0644  30FF               	movlw	255
  4376  0645  00DD               	movwf	93	;volatile
  4377                           
  4378                           ;mcc_generated_files/pin_manager.c: 73:     INLVLE = 0x0F;
  4379  0646  300F               	movlw	15
  4380  0647  00E8               	movwf	104	;volatile
  4381                           
  4382                           ;mcc_generated_files/pin_manager.c: 75:     SSP2DATPPS = 0x08;
  4383  0648  3008               	movlw	8
  4384  0649  017D               	movlb	61	; select bank61
  4385  064A  00C9               	movwf	73	;volatile
  4386                           
  4387                           ;mcc_generated_files/pin_manager.c: 76:     RB1PPS = 0x17;
  4388  064B  3017               	movlw	23
  4389  064C  017E               	movlb	62	; select bank62
  4390  064D  0099               	movwf	25	;volatile
  4391                           
  4392                           ;mcc_generated_files/pin_manager.c: 77:     RB3PPS = 0x18;
  4393  064E  3018               	movlw	24
  4394  064F  009B               	movwf	27	;volatile
  4395                           
  4396                           ;mcc_generated_files/pin_manager.c: 78:     RC6PPS = 0x0F;
  4397  0650  300F               	movlw	15
  4398  0651  00A6               	movwf	38	;volatile
  4399                           
  4400                           ;mcc_generated_files/pin_manager.c: 79:     SSP2CLKPPS = 0x09;
  4401  0652  3009               	movlw	9
  4402  0653  017D               	movlb	61	; select bank61
  4403  0654  00C8               	movwf	72	;volatile
  4404                           
  4405                           ;mcc_generated_files/pin_manager.c: 80:     RX1DTPPS = 0x17;
  4406  0655  3017               	movlw	23
  4407  0656  00CB               	movwf	75	;volatile
  4408  0657                     l85:
  4409  0657  0008               	return
  4410  0658                     __end_of_PIN_MANAGER_Initialize:
  4411                           
  4412                           	psect	text12
  4413  059F                     __ptext12:	
  4414 ;; *************** function _OSCILLATOR_Initialize *****************
  4415 ;; Defined at:
  4416 ;;		line 18 in file "mcc_generated_files/mcc.c"
  4417 ;; Parameters:    Size  Location     Type
  4418 ;;		None
  4419 ;; Auto vars:     Size  Location     Type
  4420 ;;		None
  4421 ;; Return value:  Size  Location     Type
  4422 ;;                  1    wreg      void 
  4423 ;; Registers used:
  4424 ;;		wreg, status,2
  4425 ;; Tracked objects:
  4426 ;;		On entry : 0/0
  4427 ;;		On exit  : 0/0
  4428 ;;		Unchanged: 0/0
  4429 ;; Data sizes:     COMMON   BANK0   BANK1   BANK2   BANK3   BANK4   BANK5   BANK6   BANK7   BANK8   BANK9  BANK10  BANK1
      +1  BANK12  BANK13  BANK14  BANK15  BANK16  BANK17  BANK18  BANK19  BANK20  BANK21  BANK22  BANK23  BANK24  BANK25
  4430 ;;      Params:         0       0       0       0       0       0       0       0       0       0       0       0       
      +0       0       0       0       0       0       0       0       0       0       0       0       0       0       0
  4431 ;;      Locals:         0       0       0       0       0       0       0       0       0       0       0       0       
      +0       0       0       0       0       0       0       0       0       0       0       0       0       0       0
  4432 ;;      Temps:          0       0       0       0       0       0       0       0       0       0       0       0       
      +0       0       0       0       0       0       0       0       0       0       0       0       0       0       0
  4433 ;;      Totals:         0       0       0       0       0       0       0       0       0       0       0       0       
      +0       0       0       0       0       0       0       0       0       0       0       0       0       0       0
  4434 ;;Total ram usage:        0 bytes
  4435 ;; Hardware stack levels used: 1
  4436 ;; This function calls:
  4437 ;;		Nothing
  4438 ;; This function is called by:
  4439 ;;		_SYSTEM_Initialize
  4440 ;; This function uses a non-reentrant model
  4441 ;;
  4442                           
  4443                           
  4444                           ;psect for function _OSCILLATOR_Initialize
  4445  059F                     _OSCILLATOR_Initialize:
  4446  059F                     l978:	
  4447                           ;incstack = 0
  4448                           ; Regs used in _OSCILLATOR_Initialize: [wreg+status,2]
  4449                           
  4450                           
  4451                           ;mcc_generated_files/mcc.c: 21:     OSCCON1 = 0x62;
  4452  059F  3062               	movlw	98
  4453  05A0  0151               	movlb	17	; select bank17
  4454  05A1  008D               	movwf	13	;volatile
  4455  05A2                     l980:
  4456                           
  4457                           ;mcc_generated_files/mcc.c: 23:     OSCCON3 = 0x00;
  4458  05A2  018F               	clrf	15	;volatile
  4459  05A3                     l982:
  4460                           
  4461                           ;mcc_generated_files/mcc.c: 25:     OSCEN = 0x00;
  4462  05A3  0191               	clrf	17	;volatile
  4463                           
  4464                           ;mcc_generated_files/mcc.c: 27:     OSCFRQ = 0x05;
  4465  05A4  3005               	movlw	5
  4466  05A5  0093               	movwf	19	;volatile
  4467  05A6                     l984:
  4468                           
  4469                           ;mcc_generated_files/mcc.c: 29:     OSCSTAT = 0x00;
  4470  05A6  0190               	clrf	16	;volatile
  4471  05A7                     l986:
  4472                           
  4473                           ;mcc_generated_files/mcc.c: 31:     OSCTUNE = 0x00;
  4474  05A7  0192               	clrf	18	;volatile
  4475  05A8                     l128:
  4476  05A8  0008               	return
  4477  05A9                     __end_of_OSCILLATOR_Initialize:
  4478                           
  4479                           	psect	text13
  4480  05EB                     __ptext13:	
  4481 ;; *************** function _EUSART1_Initialize *****************
  4482 ;; Defined at:
  4483 ;;		line 27 in file "mcc_generated_files/eusart1.c"
  4484 ;; Parameters:    Size  Location     Type
  4485 ;;		None
  4486 ;; Auto vars:     Size  Location     Type
  4487 ;;		None
  4488 ;; Return value:  Size  Location     Type
  4489 ;;                  1    wreg      void 
  4490 ;; Registers used:
  4491 ;;		wreg, status,2, status,0, pclath, cstack
  4492 ;; Tracked objects:
  4493 ;;		On entry : 0/0
  4494 ;;		On exit  : 0/0
  4495 ;;		Unchanged: 0/0
  4496 ;; Data sizes:     COMMON   BANK0   BANK1   BANK2   BANK3   BANK4   BANK5   BANK6   BANK7   BANK8   BANK9  BANK10  BANK1
      +1  BANK12  BANK13  BANK14  BANK15  BANK16  BANK17  BANK18  BANK19  BANK20  BANK21  BANK22  BANK23  BANK24  BANK25
  4497 ;;      Params:         0       0       0       0       0       0       0       0       0       0       0       0       
      +0       0       0       0       0       0       0       0       0       0       0       0       0       0       0
  4498 ;;      Locals:         0       0       0       0       0       0       0       0       0       0       0       0       
      +0       0       0       0       0       0       0       0       0       0       0       0       0       0       0
  4499 ;;      Temps:          0       0       0       0       0       0       0       0       0       0       0       0       
      +0       0       0       0       0       0       0       0       0       0       0       0       0       0       0
  4500 ;;      Totals:         0       0       0       0       0       0       0       0       0       0       0       0       
      +0       0       0       0       0       0       0       0       0       0       0       0       0       0       0
  4501 ;;Total ram usage:        0 bytes
  4502 ;; Hardware stack levels used: 1
  4503 ;; Hardware stack levels required when called: 1
  4504 ;; This function calls:
  4505 ;;		_EUSART1_SetErrorHandler
  4506 ;;		_EUSART1_SetFramingErrorHandler
  4507 ;;		_EUSART1_SetOverrunErrorHandler
  4508 ;; This function is called by:
  4509 ;;		_SYSTEM_Initialize
  4510 ;; This function uses a non-reentrant model
  4511 ;;
  4512                           
  4513                           
  4514                           ;psect for function _EUSART1_Initialize
  4515  05EB                     _EUSART1_Initialize:
  4516  05EB                     l1256:	
  4517                           ;incstack = 0
  4518                           ; Regs used in _EUSART1_Initialize: [wreg+status,2+status,0+pclath+cstack]
  4519                           
  4520                           
  4521                           ;mcc_generated_files/eusart1.c: 32:     BAUD1CON = 0x08;
  4522  05EB  3008               	movlw	8
  4523  05EC  0142               	movlb	2	; select bank2
  4524  05ED  009F               	movwf	31	;volatile
  4525                           
  4526                           ;mcc_generated_files/eusart1.c: 35:     RC1STA = 0x90;
  4527  05EE  3090               	movlw	144
  4528  05EF  009D               	movwf	29	;volatile
  4529                           
  4530                           ;mcc_generated_files/eusart1.c: 38:     TX1STA = 0x04;
  4531  05F0  3004               	movlw	4
  4532  05F1  009E               	movwf	30	;volatile
  4533                           
  4534                           ;mcc_generated_files/eusart1.c: 41:     SP1BRGL = 0x67;
  4535  05F2  3067               	movlw	103
  4536  05F3  009B               	movwf	27	;volatile
  4537  05F4                     l1258:
  4538                           
  4539                           ;mcc_generated_files/eusart1.c: 44:     SP1BRGH = 0x00;
  4540  05F4  019C               	clrf	28	;volatile
  4541  05F5                     l1260:
  4542                           
  4543                           ;mcc_generated_files/eusart1.c: 47:     EUSART1_SetFramingErrorHandler(EUSART1_DefaultFr
      +                          amingErrorHandler);
  4544  05F5  3000               	movlw	0
  4545  05F6  00F0               	movwf	EUSART1_SetFramingErrorHandler@interruptHandler
  4546  05F7  3000               	movlw	0
  4547  05F8  00F1               	movwf	EUSART1_SetFramingErrorHandler@interruptHandler+1
  4548  05F9  3185  257C  3185   	fcall	_EUSART1_SetFramingErrorHandler
  4549  05FC                     l1262:
  4550                           
  4551                           ;mcc_generated_files/eusart1.c: 48:     EUSART1_SetOverrunErrorHandler(EUSART1_DefaultOv
      +                          errunErrorHandler);
  4552  05FC  3000               	movlw	0
  4553  05FD  00F0               	movwf	EUSART1_SetOverrunErrorHandler@interruptHandler
  4554  05FE  3000               	movlw	0
  4555  05FF  00F1               	movwf	EUSART1_SetOverrunErrorHandler@interruptHandler+1
  4556  0600  3185  2582  3185   	fcall	_EUSART1_SetOverrunErrorHandler
  4557  0603                     l1264:
  4558                           
  4559                           ;mcc_generated_files/eusart1.c: 49:     EUSART1_SetErrorHandler(EUSART1_DefaultErrorHand
      +                          ler);
  4560  0603  3000               	movlw	0
  4561  0604  00F0               	movwf	EUSART1_SetErrorHandler@interruptHandler
  4562  0605  3000               	movlw	0
  4563  0606  00F1               	movwf	EUSART1_SetErrorHandler@interruptHandler+1
  4564  0607  3185  2576  3185   	fcall	_EUSART1_SetErrorHandler
  4565  060A                     l1266:
  4566                           
  4567                           ;mcc_generated_files/eusart1.c: 51:     eusart1RxLastError.status = 0;
  4568  060A  01FC               	clrf	_eusart1RxLastError	;volatile
  4569  060B                     l174:
  4570  060B  0008               	return
  4571  060C                     __end_of_EUSART1_Initialize:
  4572                           
  4573                           	psect	text14
  4574  0582                     __ptext14:	
  4575 ;; *************** function _EUSART1_SetOverrunErrorHandler *****************
  4576 ;; Defined at:
  4577 ;;		line 131 in file "mcc_generated_files/eusart1.c"
  4578 ;; Parameters:    Size  Location     Type
  4579 ;;  interruptHan    2    0[COMMON] PTR FTN()void 
  4580 ;;		 -> EUSART1_DefaultOverrunErrorHandler(1), 
  4581 ;; Auto vars:     Size  Location     Type
  4582 ;;		None
  4583 ;; Return value:  Size  Location     Type
  4584 ;;                  1    wreg      void 
  4585 ;; Registers used:
  4586 ;;		wreg
  4587 ;; Tracked objects:
  4588 ;;		On entry : 0/0
  4589 ;;		On exit  : 0/0
  4590 ;;		Unchanged: 0/0
  4591 ;; Data sizes:     COMMON   BANK0   BANK1   BANK2   BANK3   BANK4   BANK5   BANK6   BANK7   BANK8   BANK9  BANK10  BANK1
      +1  BANK12  BANK13  BANK14  BANK15  BANK16  BANK17  BANK18  BANK19  BANK20  BANK21  BANK22  BANK23  BANK24  BANK25
  4592 ;;      Params:         2       0       0       0       0       0       0       0       0       0       0       0       
      +0       0       0       0       0       0       0       0       0       0       0       0       0       0       0
  4593 ;;      Locals:         0       0       0       0       0       0       0       0       0       0       0       0       
      +0       0       0       0       0       0       0       0       0       0       0       0       0       0       0
  4594 ;;      Temps:          0       0       0       0       0       0       0       0       0       0       0       0       
      +0       0       0       0       0       0       0       0       0       0       0       0       0       0       0
  4595 ;;      Totals:         2       0       0       0       0       0       0       0       0       0       0       0       
      +0       0       0       0       0       0       0       0       0       0       0       0       0       0       0
  4596 ;;Total ram usage:        2 bytes
  4597 ;; Hardware stack levels used: 1
  4598 ;; This function calls:
  4599 ;;		Nothing
  4600 ;; This function is called by:
  4601 ;;		_EUSART1_Initialize
  4602 ;; This function uses a non-reentrant model
  4603 ;;
  4604                           
  4605                           
  4606                           ;psect for function _EUSART1_SetOverrunErrorHandler
  4607  0582                     _EUSART1_SetOverrunErrorHandler:
  4608  0582                     l1230:	
  4609                           ;incstack = 0
  4610                           ; Regs used in _EUSART1_SetOverrunErrorHandler: [wreg]
  4611                           
  4612                           
  4613                           ;mcc_generated_files/eusart1.c: 132:     EUSART1_OverrunErrorHandler = interruptHandler;
  4614  0582  0871               	movf	EUSART1_SetOverrunErrorHandler@interruptHandler+1,w
  4615  0583  0140               	movlb	0	; select bank0
  4616  0584  00B0               	movwf	_EUSART1_OverrunErrorHandler+1
  4617  0585  0870               	movf	EUSART1_SetOverrunErrorHandler@interruptHandler,w
  4618  0586  00AF               	movwf	_EUSART1_OverrunErrorHandler
  4619  0587                     l222:
  4620  0587  0008               	return
  4621  0588                     __end_of_EUSART1_SetOverrunErrorHandler:
  4622                           
  4623                           	psect	text15
  4624  057C                     __ptext15:	
  4625 ;; *************** function _EUSART1_SetFramingErrorHandler *****************
  4626 ;; Defined at:
  4627 ;;		line 127 in file "mcc_generated_files/eusart1.c"
  4628 ;; Parameters:    Size  Location     Type
  4629 ;;  interruptHan    2    0[COMMON] PTR FTN()void 
  4630 ;;		 -> EUSART1_DefaultFramingErrorHandler(1), 
  4631 ;; Auto vars:     Size  Location     Type
  4632 ;;		None
  4633 ;; Return value:  Size  Location     Type
  4634 ;;                  1    wreg      void 
  4635 ;; Registers used:
  4636 ;;		wreg
  4637 ;; Tracked objects:
  4638 ;;		On entry : 0/0
  4639 ;;		On exit  : 0/0
  4640 ;;		Unchanged: 0/0
  4641 ;; Data sizes:     COMMON   BANK0   BANK1   BANK2   BANK3   BANK4   BANK5   BANK6   BANK7   BANK8   BANK9  BANK10  BANK1
      +1  BANK12  BANK13  BANK14  BANK15  BANK16  BANK17  BANK18  BANK19  BANK20  BANK21  BANK22  BANK23  BANK24  BANK25
  4642 ;;      Params:         2       0       0       0       0       0       0       0       0       0       0       0       
      +0       0       0       0       0       0       0       0       0       0       0       0       0       0       0
  4643 ;;      Locals:         0       0       0       0       0       0       0       0       0       0       0       0       
      +0       0       0       0       0       0       0       0       0       0       0       0       0       0       0
  4644 ;;      Temps:          0       0       0       0       0       0       0       0       0       0       0       0       
      +0       0       0       0       0       0       0       0       0       0       0       0       0       0       0
  4645 ;;      Totals:         2       0       0       0       0       0       0       0       0       0       0       0       
      +0       0       0       0       0       0       0       0       0       0       0       0       0       0       0
  4646 ;;Total ram usage:        2 bytes
  4647 ;; Hardware stack levels used: 1
  4648 ;; This function calls:
  4649 ;;		Nothing
  4650 ;; This function is called by:
  4651 ;;		_EUSART1_Initialize
  4652 ;; This function uses a non-reentrant model
  4653 ;;
  4654                           
  4655                           
  4656                           ;psect for function _EUSART1_SetFramingErrorHandler
  4657  057C                     _EUSART1_SetFramingErrorHandler:
  4658  057C                     l1228:	
  4659                           ;incstack = 0
  4660                           ; Regs used in _EUSART1_SetFramingErrorHandler: [wreg]
  4661                           
  4662                           
  4663                           ;mcc_generated_files/eusart1.c: 128:     EUSART1_FramingErrorHandler = interruptHandler;
  4664  057C  0871               	movf	EUSART1_SetFramingErrorHandler@interruptHandler+1,w
  4665  057D  0140               	movlb	0	; select bank0
  4666  057E  00B2               	movwf	_EUSART1_FramingErrorHandler+1
  4667  057F  0870               	movf	EUSART1_SetFramingErrorHandler@interruptHandler,w
  4668  0580  00B1               	movwf	_EUSART1_FramingErrorHandler
  4669  0581                     l219:
  4670  0581  0008               	return
  4671  0582                     __end_of_EUSART1_SetFramingErrorHandler:
  4672                           
  4673                           	psect	text16
  4674  0576                     __ptext16:	
  4675 ;; *************** function _EUSART1_SetErrorHandler *****************
  4676 ;; Defined at:
  4677 ;;		line 135 in file "mcc_generated_files/eusart1.c"
  4678 ;; Parameters:    Size  Location     Type
  4679 ;;  interruptHan    2    0[COMMON] PTR FTN()void 
  4680 ;;		 -> EUSART1_DefaultErrorHandler(1), 
  4681 ;; Auto vars:     Size  Location     Type
  4682 ;;		None
  4683 ;; Return value:  Size  Location     Type
  4684 ;;                  1    wreg      void 
  4685 ;; Registers used:
  4686 ;;		wreg
  4687 ;; Tracked objects:
  4688 ;;		On entry : 0/0
  4689 ;;		On exit  : 0/0
  4690 ;;		Unchanged: 0/0
  4691 ;; Data sizes:     COMMON   BANK0   BANK1   BANK2   BANK3   BANK4   BANK5   BANK6   BANK7   BANK8   BANK9  BANK10  BANK1
      +1  BANK12  BANK13  BANK14  BANK15  BANK16  BANK17  BANK18  BANK19  BANK20  BANK21  BANK22  BANK23  BANK24  BANK25
  4692 ;;      Params:         2       0       0       0       0       0       0       0       0       0       0       0       
      +0       0       0       0       0       0       0       0       0       0       0       0       0       0       0
  4693 ;;      Locals:         0       0       0       0       0       0       0       0       0       0       0       0       
      +0       0       0       0       0       0       0       0       0       0       0       0       0       0       0
  4694 ;;      Temps:          0       0       0       0       0       0       0       0       0       0       0       0       
      +0       0       0       0       0       0       0       0       0       0       0       0       0       0       0
  4695 ;;      Totals:         2       0       0       0       0       0       0       0       0       0       0       0       
      +0       0       0       0       0       0       0       0       0       0       0       0       0       0       0
  4696 ;;Total ram usage:        2 bytes
  4697 ;; Hardware stack levels used: 1
  4698 ;; This function calls:
  4699 ;;		Nothing
  4700 ;; This function is called by:
  4701 ;;		_EUSART1_Initialize
  4702 ;; This function uses a non-reentrant model
  4703 ;;
  4704                           
  4705                           
  4706                           ;psect for function _EUSART1_SetErrorHandler
  4707  0576                     _EUSART1_SetErrorHandler:
  4708  0576                     l1232:	
  4709                           ;incstack = 0
  4710                           ; Regs used in _EUSART1_SetErrorHandler: [wreg]
  4711                           
  4712                           
  4713                           ;mcc_generated_files/eusart1.c: 136:     EUSART1_ErrorHandler = interruptHandler;
  4714  0576  0871               	movf	EUSART1_SetErrorHandler@interruptHandler+1,w
  4715  0577  0140               	movlb	0	; select bank0
  4716  0578  00AE               	movwf	_EUSART1_ErrorHandler+1
  4717  0579  0870               	movf	EUSART1_SetErrorHandler@interruptHandler,w
  4718  057A  00AD               	movwf	_EUSART1_ErrorHandler
  4719  057B                     l225:
  4720  057B  0008               	return
  4721  057C                     __end_of_EUSART1_SetErrorHandler:
  4722  007E                     btemp	set	126	;btemp
  4723  007E                     wtemp0	set	126
  4724                           
  4725                           	psect	config
  4726                           
  4727                           ;Config register CONFIG1 @ 0x8007
  4728                           ;	External Oscillator mode selection bits
  4729                           ;	FEXTOSC = OFF, Oscillator not enabled
  4730                           ;	Power-up default value for COSC bits
  4731                           ;	RSTOSC = HFINT1, HFINTOSC (1MHz)
  4732                           ;	Clock Out Enable bit
  4733                           ;	CLKOUTEN = OFF, CLKOUT function is disabled; i/o or oscillator function on OSC2
  4734                           ;	Clock Switch Enable bit
  4735                           ;	CSWEN = ON, Writing to NOSC and NDIV is allowed
  4736                           ;	Fail-Safe Clock Monitor Enable bit
  4737                           ;	FCMEN = ON, FSCM timer enabled
  4738  8007                     	org	32775
  4739  8007  3FEC               	dw	16364
  4740                           
  4741                           ;Config register CONFIG2 @ 0x8008
  4742                           ;	Master Clear Enable bit
  4743                           ;	MCLRE = ON, MCLR pin is Master Clear function
  4744                           ;	Power-up Timer Enable bit
  4745                           ;	PWRTE = OFF, PWRT disabled
  4746                           ;	Low-Power BOR enable bit
  4747                           ;	LPBOREN = OFF, ULPBOR disabled
  4748                           ;	Brown-out reset enable bits
  4749                           ;	BOREN = ON, Brown-out Reset Enabled, SBOREN bit is ignored
  4750                           ;	Brown-out Reset Voltage Selection
  4751                           ;	BORV = LO, Brown-out Reset Voltage (VBOR) set to 1.9V on LF, and 2.45V on F Devices
  4752                           ;	Zero-cross detect disable
  4753                           ;	ZCD = OFF, Zero-cross detect circuit is disabled at POR.
  4754                           ;	Peripheral Pin Select one-way control
  4755                           ;	PPS1WAY = ON, The PPSLOCK bit can be cleared and set only once in software
  4756                           ;	Stack Overflow/Underflow Reset Enable bit
  4757                           ;	STVREN = ON, Stack Overflow or Underflow will cause a reset
  4758  8008                     	org	32776
  4759  8008  3FFF               	dw	16383
  4760                           
  4761                           ;Config register CONFIG3 @ 0x8009
  4762                           ;	WDT Period Select bits
  4763                           ;	WDTCPS = WDTCPS_31, Divider ratio 1:65536; software control of WDTPS
  4764                           ;	WDT operating mode
  4765                           ;	WDTE = OFF, WDT Disabled, SWDTEN is ignored
  4766                           ;	WDT Window Select bits
  4767                           ;	WDTCWS = WDTCWS_7, window always open (100%); software control; keyed access not requi
      +                          red
  4768                           ;	WDT input clock selector
  4769                           ;	WDTCCS = SC, Software Control
  4770  8009                     	org	32777
  4771  8009  3F9F               	dw	16287
  4772                           
  4773                           ;Config register CONFIG4 @ 0x800A
  4774                           ;	Boot Block Size Selection bits
  4775                           ;	BBSIZE = BB512, 512 words boot block size
  4776                           ;	Boot Block Enable bit
  4777                           ;	BBEN = OFF, Boot Block disabled
  4778                           ;	SAF Enable bit
  4779                           ;	SAFEN = OFF, SAF disabled
  4780                           ;	Application Block Write Protection bit
  4781                           ;	WRTAPP = OFF, Application Block not write protected
  4782                           ;	Boot Block Write Protection bit
  4783                           ;	WRTB = OFF, Boot Block not write protected
  4784                           ;	Configuration Register Write Protection bit
  4785                           ;	WRTC = OFF, Configuration Register not write protected
  4786                           ;	Storage Area Flash Write Protection bit
  4787                           ;	WRTSAF = OFF, SAF not write protected
  4788                           ;	Low Voltage Programming Enable bit
  4789                           ;	LVP = ON, Low Voltage programming enabled. MCLR/Vpp pin function is MCLR.
  4790  800A                     	org	32778
  4791  800A  3FFF               	dw	16383
  4792                           
  4793                           ;Config register CONFIG5 @ 0x800B
  4794                           ;	UserNVM Program memory code protection bit
  4795                           ;	CP = OFF, UserNVM code protection disabled
  4796  800B                     	org	32779
  4797  800B  3FFF               	dw	16383

Data Sizes:
    Strings     0
    Constant    4
    Data        3
    BSS         15
    Persistent  38
    Stack       0

Auto Spaces:
    Space          Size  Autos    Used
    COMMON           14     11      14
    BANK0            80      0      21
    BANK1            80      0       0
    BANK2            80      0       0
    BANK3            80      0       0
    BANK4            80      0       0
    BANK5            80      0       0
    BANK6            80      0       0
    BANK7            80      0       0
    BANK8            80      0       0
    BANK9            80      0       0
    BANK10           80      0       0
    BANK11           80      0       0
    BANK12           80      0       0
    BANK13           80      0       0
    BANK14           80      0       0
    BANK15           80      0       0
    BANK16           80      0       0
    BANK17           80      0       0
    BANK18           80      0       0
    BANK19           80      0       0
    BANK20           80      0       0
    BANK21           80      0       0
    BANK22           80      0       0
    BANK23           80      0       0
    BANK24           80      0       0
    BANK25           32      0       0

Pointer List with Targets:

    display@p_input_arr	PTR unsigned char  size(1) Largest target is 9
		 -> input_arr(BANK0[9]), 

    EUSART1_SetErrorHandler@interruptHandler	PTR FTN()void  size(2) Largest target is 1
		 -> EUSART1_DefaultErrorHandler(), 

    EUSART1_ErrorHandler	PTR FTN()void  size(2) Largest target is 1
		 -> Absolute function(), EUSART1_DefaultErrorHandler(), 

    EUSART1_SetOverrunErrorHandler@interruptHandler	PTR FTN()void  size(2) Largest target is 1
		 -> EUSART1_DefaultOverrunErrorHandler(), 

    EUSART1_OverrunErrorHandler	PTR FTN()void  size(2) Largest target is 1
		 -> Absolute function(), EUSART1_DefaultOverrunErrorHandler(), 

    EUSART1_SetFramingErrorHandler@interruptHandler	PTR FTN()void  size(2) Largest target is 1
		 -> EUSART1_DefaultFramingErrorHandler(), 

    EUSART1_FramingErrorHandler	PTR FTN()void  size(2) Largest target is 1
		 -> Absolute function(), EUSART1_DefaultFramingErrorHandler(), 


Critical Paths under _main in COMMON

    _main->_UART1_Command_INT
    _UART1_Command_INT->_display
    _display->_SPI2_Open
    _EUSART1_Initialize->_EUSART1_SetErrorHandler
    _EUSART1_Initialize->_EUSART1_SetFramingErrorHandler
    _EUSART1_Initialize->_EUSART1_SetOverrunErrorHandler

Critical Paths under _main in BANK0

    None.

Critical Paths under _main in BANK1

    None.

Critical Paths under _main in BANK2

    None.

Critical Paths under _main in BANK3

    None.

Critical Paths under _main in BANK4

    None.

Critical Paths under _main in BANK5

    None.

Critical Paths under _main in BANK6

    None.

Critical Paths under _main in BANK7

    None.

Critical Paths under _main in BANK8

    None.

Critical Paths under _main in BANK9

    None.

Critical Paths under _main in BANK10

    None.

Critical Paths under _main in BANK11

    None.

Critical Paths under _main in BANK12

    None.

Critical Paths under _main in BANK13

    None.

Critical Paths under _main in BANK14

    None.

Critical Paths under _main in BANK15

    None.

Critical Paths under _main in BANK16

    None.

Critical Paths under _main in BANK17

    None.

Critical Paths under _main in BANK18

    None.

Critical Paths under _main in BANK19

    None.

Critical Paths under _main in BANK20

    None.

Critical Paths under _main in BANK21

    None.

Critical Paths under _main in BANK22

    None.

Critical Paths under _main in BANK23

    None.

Critical Paths under _main in BANK24

    None.

Critical Paths under _main in BANK25

    None.

Call Graph Tables:

 ---------------------------------------------------------------------------------
 (Depth) Function   	        Calls       Base Space   Used Autos Params    Refs
 ---------------------------------------------------------------------------------
 (0) _main                                                 0     0      0    1055
                  _SYSTEM_Initialize
                  _UART1_Command_INT
 ---------------------------------------------------------------------------------
 (1) _UART1_Command_INT                                    1     1      0     761
                                             10 COMMON     1     1      0
                       _EUSART1_Read
                _EUSART1_is_rx_ready
                            _display
 ---------------------------------------------------------------------------------
 (2) _display                                              6     6      0     761
                                              4 COMMON     6     6      0
                         _SPI2_Close
                  _SPI2_ExchangeByte
                          _SPI2_Open
 ---------------------------------------------------------------------------------
 (3) _SPI2_Open                                            4     4      0      88
                                              0 COMMON     4     4      0
 ---------------------------------------------------------------------------------
 (3) _SPI2_ExchangeByte                                    1     1      0      22
                                              0 COMMON     1     1      0
 ---------------------------------------------------------------------------------
 (3) _SPI2_Close                                           0     0      0       0
 ---------------------------------------------------------------------------------
 (2) _EUSART1_is_rx_ready                                  0     0      0       0
 ---------------------------------------------------------------------------------
 (2) _EUSART1_Read                                         0     0      0       0
 ---------------------------------------------------------------------------------
 (1) _SYSTEM_Initialize                                    0     0      0     294
                 _EUSART1_Initialize
              _OSCILLATOR_Initialize
             _PIN_MANAGER_Initialize
                     _PMD_Initialize
                    _SPI2_Initialize
 ---------------------------------------------------------------------------------
 (2) _SPI2_Initialize                                      0     0      0       0
 ---------------------------------------------------------------------------------
 (2) _PMD_Initialize                                       0     0      0       0
 ---------------------------------------------------------------------------------
 (2) _PIN_MANAGER_Initialize                               0     0      0       0
 ---------------------------------------------------------------------------------
 (2) _OSCILLATOR_Initialize                                0     0      0       0
 ---------------------------------------------------------------------------------
 (2) _EUSART1_Initialize                                   0     0      0     294
            _EUSART1_SetErrorHandler
     _EUSART1_SetFramingErrorHandler
     _EUSART1_SetOverrunErrorHandler
 ---------------------------------------------------------------------------------
 (3) _EUSART1_SetOverrunErrorHandler                       2     0      2      98
                                              0 COMMON     2     0      2
 ---------------------------------------------------------------------------------
 (3) _EUSART1_SetFramingErrorHandler                       2     0      2      98
                                              0 COMMON     2     0      2
 ---------------------------------------------------------------------------------
 (3) _EUSART1_SetErrorHandler                              2     0      2      98
                                              0 COMMON     2     0      2
 ---------------------------------------------------------------------------------
 Estimated maximum stack depth 3
 ---------------------------------------------------------------------------------

 Call Graph Graphs:

 _main (ROOT)
   _SYSTEM_Initialize
     _EUSART1_Initialize
       _EUSART1_SetErrorHandler
       _EUSART1_SetFramingErrorHandler
       _EUSART1_SetOverrunErrorHandler
     _OSCILLATOR_Initialize
     _PIN_MANAGER_Initialize
     _PMD_Initialize
     _SPI2_Initialize
   _UART1_Command_INT
     _EUSART1_Read
     _EUSART1_is_rx_ready
     _display
       _SPI2_Close
       _SPI2_ExchangeByte
       _SPI2_Open

 Address spaces:
Name               Size   Autos  Total    Cost      Usage
BIGRAM             7F0      0       0       0        0.0%
NULL                 0      0       0       0        0.0%
CODE                 0      0       0       0        0.0%
BITCOMMON            E      0       0       1        0.0%
BITSFR0              0      0       0       1        0.0%
SFR0                 0      0       0       1        0.0%
COMMON               E      B       E       2      100.0%
BITSFR1              0      0       0       2        0.0%
SFR1                 0      0       0       2        0.0%
BITSFR2              0      0       0       3        0.0%
SFR2                 0      0       0       3        0.0%
STACK                0      0       0       3        0.0%
BITBANK0            50      0       0       4        0.0%
BITSFR3              0      0       0       4        0.0%
SFR3                 0      0       0       4        0.0%
BANK0               50      0      15       5       26.2%
BITSFR4              0      0       0       5        0.0%
SFR4                 0      0       0       5        0.0%
BITBANK1            50      0       0       6        0.0%
BITSFR5              0      0       0       6        0.0%
SFR5                 0      0       0       6        0.0%
BANK1               50      0       0       7        0.0%
BITSFR6              0      0       0       7        0.0%
SFR6                 0      0       0       7        0.0%
BITSFR7              0      0       0       8        0.0%
SFR7                 0      0       0       8        0.0%
ABS                  0      0      23       8        0.0%
BITBANK2            50      0       0       9        0.0%
BITSFR8              0      0       0       9        0.0%
SFR8                 0      0       0       9        0.0%
BANK2               50      0       0      10        0.0%
BITSFR9              0      0       0      10        0.0%
SFR9                 0      0       0      10        0.0%
BITBANK3            50      0       0      11        0.0%
BITSFR10             0      0       0      11        0.0%
SFR10                0      0       0      11        0.0%
BANK3               50      0       0      12        0.0%
BITSFR11             0      0       0      12        0.0%
SFR11                0      0       0      12        0.0%
BITBANK4            50      0       0      13        0.0%
BITSFR12             0      0       0      13        0.0%
SFR12                0      0       0      13        0.0%
BANK4               50      0       0      14        0.0%
BITSFR13             0      0       0      14        0.0%
SFR13                0      0       0      14        0.0%
BITBANK5            50      0       0      15        0.0%
BITSFR14             0      0       0      15        0.0%
SFR14                0      0       0      15        0.0%
BANK5               50      0       0      16        0.0%
BITSFR15             0      0       0      16        0.0%
SFR15                0      0       0      16        0.0%
BITBANK6            50      0       0      17        0.0%
BITSFR16             0      0       0      17        0.0%
SFR16                0      0       0      17        0.0%
BANK6               50      0       0      18        0.0%
BITSFR17             0      0       0      18        0.0%
SFR17                0      0       0      18        0.0%
BITBANK7            50      0       0      19        0.0%
BITSFR18             0      0       0      19        0.0%
SFR18                0      0       0      19        0.0%
BANK7               50      0       0      20        0.0%
BITSFR19             0      0       0      20        0.0%
SFR19                0      0       0      20        0.0%
BITBANK8            50      0       0      21        0.0%
BITSFR20             0      0       0      21        0.0%
SFR20                0      0       0      21        0.0%
BANK8               50      0       0      22        0.0%
BITSFR21             0      0       0      22        0.0%
SFR21                0      0       0      22        0.0%
BITBANK9            50      0       0      23        0.0%
BITSFR22             0      0       0      23        0.0%
SFR22                0      0       0      23        0.0%
BANK9               50      0       0      24        0.0%
BITSFR23             0      0       0      24        0.0%
SFR23                0      0       0      24        0.0%
BITBANK10           50      0       0      25        0.0%
BITSFR24             0      0       0      25        0.0%
SFR24                0      0       0      25        0.0%
BANK10              50      0       0      26        0.0%
BITSFR25             0      0       0      26        0.0%
SFR25                0      0       0      26        0.0%
BITBANK11           50      0       0      27        0.0%
BITSFR26             0      0       0      27        0.0%
SFR26                0      0       0      27        0.0%
BANK11              50      0       0      28        0.0%
BITSFR27             0      0       0      28        0.0%
SFR27                0      0       0      28        0.0%
BITBANK12           50      0       0      29        0.0%
BITSFR28             0      0       0      29        0.0%
SFR28                0      0       0      29        0.0%
BANK12              50      0       0      30        0.0%
BITSFR29             0      0       0      30        0.0%
SFR29                0      0       0      30        0.0%
BITBANK13           50      0       0      31        0.0%
BITSFR30             0      0       0      31        0.0%
SFR30                0      0       0      31        0.0%
BANK13              50      0       0      32        0.0%
BITSFR31             0      0       0      32        0.0%
SFR31                0      0       0      32        0.0%
BITBANK14           50      0       0      33        0.0%
BITSFR32             0      0       0      33        0.0%
SFR32                0      0       0      33        0.0%
BANK14              50      0       0      34        0.0%
BITSFR33             0      0       0      34        0.0%
SFR33                0      0       0      34        0.0%
BITBANK15           50      0       0      35        0.0%
BITSFR34             0      0       0      35        0.0%
SFR34                0      0       0      35        0.0%
BANK15              50      0       0      36        0.0%
BITSFR35             0      0       0      36        0.0%
SFR35                0      0       0      36        0.0%
BITBANK16           50      0       0      37        0.0%
BITSFR36             0      0       0      37        0.0%
SFR36                0      0       0      37        0.0%
BANK16              50      0       0      38        0.0%
BITSFR37             0      0       0      38        0.0%
SFR37                0      0       0      38        0.0%
BITBANK17           50      0       0      39        0.0%
BITSFR38             0      0       0      39        0.0%
SFR38                0      0       0      39        0.0%
BANK17              50      0       0      40        0.0%
BITSFR39             0      0       0      40        0.0%
SFR39                0      0       0      40        0.0%
BITBANK18           50      0       0      41        0.0%
BITSFR40             0      0       0      41        0.0%
SFR40                0      0       0      41        0.0%
BANK18              50      0       0      42        0.0%
BITSFR41             0      0       0      42        0.0%
SFR41                0      0       0      42        0.0%
BITBANK19           50      0       0      43        0.0%
BITSFR42             0      0       0      43        0.0%
SFR42                0      0       0      43        0.0%
BANK19              50      0       0      44        0.0%
BITSFR43             0      0       0      44        0.0%
SFR43                0      0       0      44        0.0%
BITBANK20           50      0       0      45        0.0%
BITSFR44             0      0       0      45        0.0%
SFR44                0      0       0      45        0.0%
BANK20              50      0       0      46        0.0%
BITSFR45             0      0       0      46        0.0%
SFR45                0      0       0      46        0.0%
BITBANK21           50      0       0      47        0.0%
BITSFR46             0      0       0      47        0.0%
SFR46                0      0       0      47        0.0%
BANK21              50      0       0      48        0.0%
BITSFR47             0      0       0      48        0.0%
SFR47                0      0       0      48        0.0%
BITBANK22           50      0       0      49        0.0%
BITSFR48             0      0       0      49        0.0%
SFR48                0      0       0      49        0.0%
BANK22              50      0       0      50        0.0%
BITSFR49             0      0       0      50        0.0%
SFR49                0      0       0      50        0.0%
BITBANK23           50      0       0      51        0.0%
BITSFR50             0      0       0      51        0.0%
SFR50                0      0       0      51        0.0%
BANK23              50      0       0      52        0.0%
BITSFR51             0      0       0      52        0.0%
SFR51                0      0       0      52        0.0%
BITBANK24           50      0       0      53        0.0%
BITSFR52             0      0       0      53        0.0%
SFR52                0      0       0      53        0.0%
BANK24              50      0       0      54        0.0%
BITSFR53             0      0       0      54        0.0%
SFR53                0      0       0      54        0.0%
BITBANK25           20      0       0      55        0.0%
BITSFR54             0      0       0      55        0.0%
SFR54                0      0       0      55        0.0%
BANK25              20      0       0      56        0.0%
BITSFR55             0      0       0      56        0.0%
SFR55                0      0       0      56        0.0%
BITSFR56             0      0       0      57        0.0%
SFR56                0      0       0      57        0.0%
DATA                 0      0      23      57        0.0%
BITSFR57             0      0       0      58        0.0%
SFR57                0      0       0      58        0.0%
BITSFR58             0      0       0      59        0.0%
SFR58                0      0       0      59        0.0%
BITSFR59             0      0       0      60        0.0%
SFR59                0      0       0      60        0.0%
BITSFR60             0      0       0      61        0.0%
SFR60                0      0       0      61        0.0%
BITSFR61             0      0       0      62        0.0%
SFR61                0      0       0      62        0.0%
BITSFR62             0      0       0      63        0.0%
SFR62                0      0       0      63        0.0%
BITSFR63             0      0       0      64        0.0%
SFR63                0      0       0      64        0.0%


Microchip Technology PIC Macro Assembler V2.32 build 20210201212658 
Symbol Table                                                                                   Sat Oct 23 16:08:30 2021

                                            l85 0657                                             l131 0595  
                                           l125 05D4                                             l222 0587  
                                           l128 05A8                                             l225 057B  
                                           l219 0581                                             l261 0570  
                                           l174 060B                                             l254 05EA  
                                           l182 0575                                             l350 06EA  
                                           l191 05B6                                             l264 05AD  
                                           l266 05B2                                             l258 06A4  
                                           l354 0713                                             l195 05C4  
                                           l267 05B5                                             l390 07E6  
                                           l386 07DB                                             l950 062A  
                                           l960 062F                                             l952 062B  
                                           l944 060C                                             l962 0630  
                                           l954 062C                                             l946 0611  
                                           l970 058E                                             l980 05A2  
                                           l964 0631                                             l956 062D  
                                           l948 0612                                             l972 05D5  
                                           l982 05A3                                             l966 0632  
                                           l958 062E                                             l974 05E6  
                                           l984 05A6                                             l968 0633  
                                           l976 05E8                                             l986 05A7  
                                           l978 059F                                             u200 05B2  
                                           u201 05B1                                             u210 05BB  
                                           u211 05BA                                             u220 05C1  
                                           u221 05C0                                             u230 07DB  
                                           u231 07DA                                             u240 06AD  
                                           u241 06AC                                             u250 06BA  
                                           u235 07D7                                             u251 06B9  
                                           u260 06C8                                             u261 06C7  
                                           u190 065E                                             u270 06CF  
                                           u191 065D                                             u327 06EE  
                                           u271 06CE                                             u280 06D6  
                                           u337 07DE                                             u281 06D5  
                                           u290 06EA                                             u291 06E9  
                       __size_of_PMD_Initialize 0008                                             wreg 0009  
                                          l1300 0748                                            l1230 0582  
                                          l1310 077F                                            l1302 0753  
                                          l1232 0576                                            l1240 067D  
                                          l1320 07CA                                            l1312 078A  
                                          l1304 075E                                            l1250 05AA  
                                          l1242 068C                                            l1234 0659  
                                          l1322 07CE                                            l1306 0769  
                                          l1228 057C                                            l1260 05F5  
                                          l1340 05CE                                            l1252 05B3  
                                          l1244 06A2                                            l1236 065E  
                                          l1324 07DD                                            l1308 0774  
                                          l1316 0792                                            l1262 05FC  
                                          l1342 05D1                                            l1334 05C5  
                                          l1238 067C                                            l1326 07E1  
                                          l1318 07C0                                            l1350 06BA  
                                          l1264 0603                                            l1256 05EB  
                                          l1336 05C8                                            l1280 05C3  
                                          l1272 05B6                                            l1248 056E  
                                          l1328 07E3                                            l1360 06C9  
                                          l1352 06BF                                            l1344 06A5  
                                          l1416 0596                                            l1266 060A  
                                          l1258 05F4                                            l1338 05CB  
                                          l1274 05BB                                            l1354 06C2  
                                          l1346 06AD                                            l1418 0599  
                                          l1276 05BC                                            l1268 0571  
                                          l1292 071C                                            l1284 0715  
                                          l1380 06F2                                            l1372 06D7  
                                          l1348 06B4                                            l1278 05C1  
                                          l1294 0727                                            l1286 0719  
                                          l1470 0702                                            l1382 06F4  
                                          l1374 06DF                                            l1366 06D0  
                                          l1472 07A0                                            l1296 0732  
                                          l1384 06F8                                            l1376 06E3  
                                          l1298 073D                                            l1378 06EB  
                                          l1388 06FC                                            _LATA 0018  
                                          _LATB 0019                                            _LATC 001A  
                                          _LATD 001B                                            _LATE 001C  
                                          _PMD0 0796                                            _PMD1 0797  
                                          _PMD2 0798                                            _PMD3 0799  
                                          _PMD4 079A                                            _PMD5 079B  
                                          _WPUA 1F39                                            _WPUB 1F44  
                                          _WPUC 1F4F                                            _WPUD 1F5A  
                                          _WPUE 1F65                                            _lane 007D  
                                          _main 0596                                   ?_EUSART1_Read 0070  
                                          _temp 007B                                            fsr0h 0005  
                                          fsr1h 0007                                            indf0 0000  
                                          fsr0l 0004                                            indf1 0001  
                                          fsr1l 0006                                            btemp 007E  
                                          start 0002                                    _total_digits 0033  
                __size_of_OSCILLATOR_Initialize 000A                   __end_of_OSCILLATOR_Initialize 05A9  
                                   ?_SPI2_Close 0070                                           ?_main 0070  
                                         _OSCEN 0891                                           _TRISA 0012  
                                         _TRISB 0013                                           _TRISC 0014  
                                         _TRISD 0015                                           _TRISE 0016  
                            __size_of_SPI2_Open 004D                                 __end_of_display 07E7  
                                ??_EUSART1_Read 0070                                           status 0003  
                                         wtemp0 007E              _EUSART1_DefaultFramingErrorHandler 0000  
                               __initialization 07E7                      __end_of_EUSART1_Initialize 060C  
                                  __end_of_main 059F                               _SPI2_ExchangeByte 05A9  
                            ?_SPI2_ExchangeByte 0070                                          ??_main 007B  
                      __size_of_SPI2_Initialize 0016                             ??_SPI2_ExchangeByte 0070  
                                        _ANSELA 1F38                                          _ANSELB 1F43  
                                        _ANSELC 1F4E                                          _ANSELD 1F59  
                                        _ANSELE 1F64                                          _RC1REG 0119  
                                        _RB1PPS 1F19                                          _RB3PPS 1F1B  
                                        _RC1STA 011D                                          _RB5PPS 1F1D  
                                        _ODCONA 1F3A                                          _ODCONB 1F45  
                                        _ODCONC 1F50                                          _RC6PPS 1F26  
                                        _ODCOND 1F5B                                          _ODCONE 1F66  
                  __size_of_EUSART1_is_rx_ready 0005                                          _INLVLA 1F3C  
                                        _INLVLB 1F47                                          _INLVLC 1F52  
                                        _INLVLD 1F5D                                          _INLVLE 1F68  
                                        _OSCFRQ 0893                                          _TX1REG 011A  
                                        _TX1STA 011E                             __size_of_SPI2_Close 0003  
                             __end_of_SPI2_Open 06A5                       __end_of_SPI2_ExchangeByte 05B6  
                      ?_EUSART1_SetErrorHandler 0070                ??_EUSART1_SetOverrunErrorHandler 0072  
               ?_EUSART1_SetOverrunErrorHandler 0070                                       ??_display 0074  
                                _PMD_Initialize 058E                                    __pdataCOMMON 007D  
                             _UART1_Command_INT 06A5                              ?_UART1_Command_INT 0070  
                             _SYSTEM_Initialize 05C5                         __end_of__initialization 07FD  
                           ??_UART1_Command_INT 007A                              ?_SYSTEM_Initialize 0070  
                    __end_of_spi2_configuration 0804                                  __pcstackCOMMON 0070  
                                  __pidataBANK0 056C                             ??_SYSTEM_Initialize 0072  
                        __end_of_PMD_Initialize 0596                            __end_of_EUSART1_Read 05C5  
                     __end_of_UART1_Command_INT 0714                       __end_of_SYSTEM_Initialize 05D5  
                             ??_SPI2_Initialize 0070                                      __pbssBANK0 0020  
                    __size_of_SPI2_ExchangeByte 000D                 __end_of_EUSART1_SetErrorHandler 057C  
                                    __pmaintext 0596                                   _rec_char_posn 0022  
                               ?_PMD_Initialize 0070                                    ??_SPI2_Close 0070  
        __end_of_EUSART1_SetFramingErrorHandler 0582         __size_of_EUSART1_SetFramingErrorHandler 0006  
                _EUSART1_SetFramingErrorHandler 057C                                         _SP1BRGH 011C  
                                       _SP1BRGL 011B                                         _OSCCON1 088D  
                                       _OSCCON3 088F                                         _OSCSTAT 0890  
                                       _OSCTUNE 0892                                         _SSP2ADD 0197  
                                       _SLRCONA 1F3B                                         _SLRCONB 1F46  
                                       _SLRCONC 1F51                                         _SLRCOND 1F5C  
                                       _SLRCONE 1F67                                         _SSP2BUF 0196  
                            __end_of_SPI2_Close 0571                             _EUSART1_is_rx_ready 0571  
                                       __ptext1 06A5                                         __ptext2 0714  
                                       __ptext3 0658                                         __ptext4 05A9  
                                       __ptext5 056E                                         __ptext6 0571  
                                       __ptext7 05B6                                         __ptext8 05C5  
                                       __ptext9 05D5                      __size_of_UART1_Command_INT 006F  
                                       _display 0714                           _OSCILLATOR_Initialize 059F  
                            _EUSART1_Initialize 05EB                        ??_PIN_MANAGER_Initialize 0070  
                    __size_of_SYSTEM_Initialize 0010                                         clrloop0 0589  
                          end_of_initialization 07FD                            ?_EUSART1_is_rx_ready 0070  
                           ?_EUSART1_Initialize 0070                     _EUSART1_OverrunErrorHandler 002F  
                            display@p_input_arr 0077                           __size_of_EUSART1_Read 000F  
                                     _SPI2_Open 0658                            ??_EUSART1_Initialize 0072  
                                     _TRISBbits 0013                __size_of_EUSART1_SetErrorHandler 0006  
                         ??_EUSART1_is_rx_ready 0070                                    _EUSART1_Read 05B6  
                                    ?_SPI2_Open 0070                                   __pidataCOMMON 056B  
                        ?_OSCILLATOR_Initialize 0070                                 _SPI2_Initialize 05D5  
                            _spi2_configuration 0800                             start_initialization 07E7  
               __size_of_PIN_MANAGER_Initialize 004C                                ??_PMD_Initialize 0070  
                                   __pdataBANK0 0033                           SPI2_ExchangeByte@data 0070  
                                   __pbssCOMMON 007B                                       ___latbits 0003  
              ??_EUSART1_SetFramingErrorHandler 0072                 ?_EUSART1_SetFramingErrorHandler 0070  
                                     __pnvBANK0 002D                          _PIN_MANAGER_Initialize 060C  
                       __end_of_SPI2_Initialize 05EB                                     ??_SPI2_Open 0070  
              SPI2_Open@spi2UniqueConfiguration 0073                                  _rec_chars_recv 0020  
                                      ?_display 0070                                        _BAUD1CON 011F  
            _EUSART1_DefaultOverrunErrorHandler 0000                            _EUSART1_ErrorHandler 002D  
                       _EUSART1_SetErrorHandler 0576                                       _input_arr 0024  
       EUSART1_SetErrorHandler@interruptHandler 0070                                        _LATDbits 001B  
                                      _LATEbits 001C                                       clear_ram0 0588  
                                      _PIR3bits 070F                                        _RX1DTPPS 1ECB  
                                      _SSP2CON1 019A                                        _SSP2CON2 019B  
                                      _SSP2STAT 0199                                ?_SPI2_Initialize 0070  
                       ??_OSCILLATOR_Initialize 0070                     __size_of_EUSART1_Initialize 0021  
                     ??_EUSART1_SetErrorHandler 0072                     _EUSART1_DefaultErrorHandler 0000  
                              __size_of_display 00D3                     __end_of_EUSART1_is_rx_ready 0576  
                                      __ptext10 058E                                        __ptext11 060C  
                                      __ptext12 059F                                        __ptext13 05EB  
                                      __ptext14 0582                                        __ptext15 057C  
                                      __ptext16 0576                                    _SSP2CON1bits 019A  
                                 __size_of_main 0009                                      _RC1STAbits 011D  
EUSART1_SetOverrunErrorHandler@interruptHandler 0070                                        display@i 0078  
                   _EUSART1_FramingErrorHandler 0031                         ?_PIN_MANAGER_Initialize 0070  
        __end_of_EUSART1_SetOverrunErrorHandler 0588         __size_of_EUSART1_SetOverrunErrorHandler 0006  
                _EUSART1_SetOverrunErrorHandler 0582  EUSART1_SetFramingErrorHandler@interruptHandler 0070  
                            _eusart1RxLastError 007C                                   __pstringtext1 0800  
                                    _SPI2_Close 056E                                      _SSP2DATPPS 1EC9  
                                    _SSP2CLKPPS 1EC8                                      _TX1STAbits 011E  
                __end_of_PIN_MANAGER_Initialize 0658  
